; ModuleID = 'LULESH.ll'
source_filename = "llvm-link"
target datalayout = "e-m:e-p270:32:32-p271:32:32-p272:64:64-i64:64-f80:128-n8:16:32:64-S128"
target triple = "x86_64-unknown-linux-gnu"

%struct.Mesh = type { %"class.std::vector", %"class.std::vector", %"class.std::vector", %"class.std::vector", %"class.std::vector", %"class.std::vector", %"class.std::vector", %"class.std::vector", %"class.std::vector", %"class.std::vector", %"class.std::vector", %"class.std::vector", %"class.std::vector", %"class.std::vector.0", %"class.std::vector.0", %"class.std::vector.0", %"class.std::vector.0", %"class.std::vector.0", %"class.std::vector.0", %"class.std::vector.0", %"class.std::vector.0", %"class.std::vector.0", %"class.std::vector.0", %"class.std::vector.0", %"class.std::vector.0", %"class.std::vector", %"class.std::vector", %"class.std::vector", %"class.std::vector", %"class.std::vector", %"class.std::vector", %"class.std::vector", %"class.std::vector", %"class.std::vector", %"class.std::vector", %"class.std::vector", %"class.std::vector", %"class.std::vector", %"class.std::vector", %"class.std::vector", %"class.std::vector", %"class.std::vector", %"class.std::vector", %"class.std::vector", %"class.std::vector", %"class.std::vector", %"class.std::vector", double, double, double, double, double, double, double, double, double, double, double, double, double, double, double, double, double, double, double, double, double, double, double, double, double, double, double, double, i32, i32, i32, i32, i32, i32 }
%"class.std::vector.0" = type { %"struct.std::_Vector_base.1" }
%"struct.std::_Vector_base.1" = type { %"struct.std::_Vector_base<int, std::allocator<int>>::_Vector_impl" }
%"struct.std::_Vector_base<int, std::allocator<int>>::_Vector_impl" = type { %"struct.std::_Vector_base<int, std::allocator<int>>::_Vector_impl_data" }
%"struct.std::_Vector_base<int, std::allocator<int>>::_Vector_impl_data" = type { i32*, i32*, i32* }
%"class.std::vector" = type { %"struct.std::_Vector_base" }
%"struct.std::_Vector_base" = type { %"struct.std::_Vector_base<double, std::allocator<double>>::_Vector_impl" }
%"struct.std::_Vector_base<double, std::allocator<double>>::_Vector_impl" = type { %"struct.std::_Vector_base<double, std::allocator<double>>::_Vector_impl_data" }
%"struct.std::_Vector_base<double, std::allocator<double>>::_Vector_impl_data" = type { double*, double*, double* }
%struct.timeval = type { i64, i64 }
%struct._IO_FILE = type { i32, i8*, i8*, i8*, i8*, i8*, i8*, i8*, i8*, i8*, i8*, i8*, %struct._IO_marker*, %struct._IO_FILE*, i32, i32, i64, i16, i8, [1 x i8], i8*, i64, %struct._IO_codecvt*, %struct._IO_wide_data*, %struct._IO_FILE*, i8*, i64, i32, [20 x i8] }
%struct._IO_marker = type opaque
%struct._IO_codecvt = type opaque
%struct._IO_wide_data = type opaque

$_ZN4MeshD2Ev = comdat any

$_ZN4Mesh22AllocateElemPersistentEm = comdat any

$_ZN4Mesh21AllocateElemTemporaryEm = comdat any

$_ZN4Mesh23AllocateNodalPersistentEm = comdat any

$_ZN4Mesh16AllocateNodesetsEm = comdat any

$_ZNSt6vectorIiSaIiEE17_M_default_appendEm = comdat any

$_ZNSt6vectorIdSaIdEE17_M_default_appendEm = comdat any

$_ZNSt6vectorIdSaIdEE14_M_fill_insertEN9__gnu_cxx17__normal_iteratorIPdS1_EEmRKd = comdat any

@llvm.global_ctors = appending global [1 x { i32, void ()*, i8* }] [{ i32, void ()*, i8* } { i32 65535, void ()* @_GLOBAL__sub_I_LULESH.cc, i8* null }]
@mesh = dso_local global %struct.Mesh zeroinitializer, align 8
@.str = private unnamed_addr constant [26 x i8] c"\0A\0AElapsed time = %12.6e\0A\0A\00", align 1
@.str.2 = private unnamed_addr constant [31 x i8] c"   Problem size        =  %i \0A\00", align 1
@.str.3 = private unnamed_addr constant [31 x i8] c"   Iteration count     =  %i \0A\00", align 1
@.str.4 = private unnamed_addr constant [34 x i8] c"   Final Origin Energy = %12.6e \0A\00", align 1
@.str.5 = private unnamed_addr constant [12 x i8] c"element.dat\00", align 1
@.str.6 = private unnamed_addr constant [2 x i8] c"w\00", align 1
@.str.7 = private unnamed_addr constant [5 x i8] c"%f \0A\00", align 1
@.str.9 = private unnamed_addr constant [31 x i8] c"        MaxAbsDiff   = %12.6e\0A\00", align 1
@.str.10 = private unnamed_addr constant [31 x i8] c"        TotalAbsDiff = %12.6e\0A\00", align 1
@.str.11 = private unnamed_addr constant [32 x i8] c"        MaxRelDiff   = %12.6e\0A\0A\00", align 1
@.str.12 = private unnamed_addr constant [26 x i8] c"vector::_M_default_append\00", align 1
@.str.13 = private unnamed_addr constant [23 x i8] c"vector::_M_fill_insert\00", align 1
@str = private unnamed_addr constant [17 x i8] c"Run completed:  \00", align 1
@str.14 = private unnamed_addr constant [36 x i8] c"   Testing Plane 0 of Energy Array:\00", align 1

; Function Attrs: nounwind uwtable
define internal void @_GLOBAL__sub_I_LULESH.cc() #0 section ".text.startup" {
  tail call void @llvm.memset.p0i8.i64(i8* noundef nonnull align 8 dereferenceable(1128) bitcast (%struct.Mesh* @mesh to i8*), i8 0, i64 1128, i1 false) #2
  %1 = tail call i32 @atexit(void ()* nonnull @__dtor_mesh) #2
  ret void
}

; Function Attrs: argmemonly mustprogress nofree nounwind willreturn writeonly
declare void @llvm.memset.p0i8.i64(i8* nocapture writeonly, i8, i64, i1 immarg) #1

; Function Attrs: nounwind uwtable
define internal void @__dtor_mesh() #0 section ".text.startup" {
  tail call void @_ZN4MeshD2Ev(%struct.Mesh* @mesh)
  ret void
}

; Function Attrs: nounwind
declare dso_local i32 @atexit(void ()*) local_unnamed_addr #2

; Function Attrs: inlinehint nounwind uwtable
define linkonce_odr dso_local void @_ZN4MeshD2Ev(%struct.Mesh* nonnull align 8 dereferenceable(1376) %0) unnamed_addr #3 comdat align 2 personality i32 (...)* @__gxx_personality_v0 {
  %2 = getelementptr inbounds %struct.Mesh, %struct.Mesh* %0, i64 0, i32 46, i32 0, i32 0, i32 0, i32 0
  %3 = load double*, double** %2, align 8, !tbaa !3
  %4 = icmp eq double* %3, null
  br i1 %4, label %7, label %5

5:                                                ; preds = %1
  %6 = bitcast double* %3 to i8*
  tail call void @_ZdlPv(i8* nonnull %6) #2
  br label %7

7:                                                ; preds = %5, %1
  %8 = getelementptr inbounds %struct.Mesh, %struct.Mesh* %0, i64 0, i32 45, i32 0, i32 0, i32 0, i32 0
  %9 = load double*, double** %8, align 8, !tbaa !3
  %10 = icmp eq double* %9, null
  br i1 %10, label %13, label %11

11:                                               ; preds = %7
  %12 = bitcast double* %9 to i8*
  tail call void @_ZdlPv(i8* nonnull %12) #2
  br label %13

13:                                               ; preds = %11, %7
  %14 = getelementptr inbounds %struct.Mesh, %struct.Mesh* %0, i64 0, i32 44, i32 0, i32 0, i32 0, i32 0
  %15 = load double*, double** %14, align 8, !tbaa !3
  %16 = icmp eq double* %15, null
  br i1 %16, label %19, label %17

17:                                               ; preds = %13
  %18 = bitcast double* %15 to i8*
  tail call void @_ZdlPv(i8* nonnull %18) #2
  br label %19

19:                                               ; preds = %17, %13
  %20 = getelementptr inbounds %struct.Mesh, %struct.Mesh* %0, i64 0, i32 43, i32 0, i32 0, i32 0, i32 0
  %21 = load double*, double** %20, align 8, !tbaa !3
  %22 = icmp eq double* %21, null
  br i1 %22, label %25, label %23

23:                                               ; preds = %19
  %24 = bitcast double* %21 to i8*
  tail call void @_ZdlPv(i8* nonnull %24) #2
  br label %25

25:                                               ; preds = %23, %19
  %26 = getelementptr inbounds %struct.Mesh, %struct.Mesh* %0, i64 0, i32 42, i32 0, i32 0, i32 0, i32 0
  %27 = load double*, double** %26, align 8, !tbaa !3
  %28 = icmp eq double* %27, null
  br i1 %28, label %31, label %29

29:                                               ; preds = %25
  %30 = bitcast double* %27 to i8*
  tail call void @_ZdlPv(i8* nonnull %30) #2
  br label %31

31:                                               ; preds = %29, %25
  %32 = getelementptr inbounds %struct.Mesh, %struct.Mesh* %0, i64 0, i32 41, i32 0, i32 0, i32 0, i32 0
  %33 = load double*, double** %32, align 8, !tbaa !3
  %34 = icmp eq double* %33, null
  br i1 %34, label %37, label %35

35:                                               ; preds = %31
  %36 = bitcast double* %33 to i8*
  tail call void @_ZdlPv(i8* nonnull %36) #2
  br label %37

37:                                               ; preds = %35, %31
  %38 = getelementptr inbounds %struct.Mesh, %struct.Mesh* %0, i64 0, i32 40, i32 0, i32 0, i32 0, i32 0
  %39 = load double*, double** %38, align 8, !tbaa !3
  %40 = icmp eq double* %39, null
  br i1 %40, label %43, label %41

41:                                               ; preds = %37
  %42 = bitcast double* %39 to i8*
  tail call void @_ZdlPv(i8* nonnull %42) #2
  br label %43

43:                                               ; preds = %41, %37
  %44 = getelementptr inbounds %struct.Mesh, %struct.Mesh* %0, i64 0, i32 39, i32 0, i32 0, i32 0, i32 0
  %45 = load double*, double** %44, align 8, !tbaa !3
  %46 = icmp eq double* %45, null
  br i1 %46, label %49, label %47

47:                                               ; preds = %43
  %48 = bitcast double* %45 to i8*
  tail call void @_ZdlPv(i8* nonnull %48) #2
  br label %49

49:                                               ; preds = %47, %43
  %50 = getelementptr inbounds %struct.Mesh, %struct.Mesh* %0, i64 0, i32 38, i32 0, i32 0, i32 0, i32 0
  %51 = load double*, double** %50, align 8, !tbaa !3
  %52 = icmp eq double* %51, null
  br i1 %52, label %55, label %53

53:                                               ; preds = %49
  %54 = bitcast double* %51 to i8*
  tail call void @_ZdlPv(i8* nonnull %54) #2
  br label %55

55:                                               ; preds = %53, %49
  %56 = getelementptr inbounds %struct.Mesh, %struct.Mesh* %0, i64 0, i32 37, i32 0, i32 0, i32 0, i32 0
  %57 = load double*, double** %56, align 8, !tbaa !3
  %58 = icmp eq double* %57, null
  br i1 %58, label %61, label %59

59:                                               ; preds = %55
  %60 = bitcast double* %57 to i8*
  tail call void @_ZdlPv(i8* nonnull %60) #2
  br label %61

61:                                               ; preds = %59, %55
  %62 = getelementptr inbounds %struct.Mesh, %struct.Mesh* %0, i64 0, i32 36, i32 0, i32 0, i32 0, i32 0
  %63 = load double*, double** %62, align 8, !tbaa !3
  %64 = icmp eq double* %63, null
  br i1 %64, label %67, label %65

65:                                               ; preds = %61
  %66 = bitcast double* %63 to i8*
  tail call void @_ZdlPv(i8* nonnull %66) #2
  br label %67

67:                                               ; preds = %65, %61
  %68 = getelementptr inbounds %struct.Mesh, %struct.Mesh* %0, i64 0, i32 35, i32 0, i32 0, i32 0, i32 0
  %69 = load double*, double** %68, align 8, !tbaa !3
  %70 = icmp eq double* %69, null
  br i1 %70, label %73, label %71

71:                                               ; preds = %67
  %72 = bitcast double* %69 to i8*
  tail call void @_ZdlPv(i8* nonnull %72) #2
  br label %73

73:                                               ; preds = %71, %67
  %74 = getelementptr inbounds %struct.Mesh, %struct.Mesh* %0, i64 0, i32 34, i32 0, i32 0, i32 0, i32 0
  %75 = load double*, double** %74, align 8, !tbaa !3
  %76 = icmp eq double* %75, null
  br i1 %76, label %79, label %77

77:                                               ; preds = %73
  %78 = bitcast double* %75 to i8*
  tail call void @_ZdlPv(i8* nonnull %78) #2
  br label %79

79:                                               ; preds = %77, %73
  %80 = getelementptr inbounds %struct.Mesh, %struct.Mesh* %0, i64 0, i32 33, i32 0, i32 0, i32 0, i32 0
  %81 = load double*, double** %80, align 8, !tbaa !3
  %82 = icmp eq double* %81, null
  br i1 %82, label %85, label %83

83:                                               ; preds = %79
  %84 = bitcast double* %81 to i8*
  tail call void @_ZdlPv(i8* nonnull %84) #2
  br label %85

85:                                               ; preds = %83, %79
  %86 = getelementptr inbounds %struct.Mesh, %struct.Mesh* %0, i64 0, i32 32, i32 0, i32 0, i32 0, i32 0
  %87 = load double*, double** %86, align 8, !tbaa !3
  %88 = icmp eq double* %87, null
  br i1 %88, label %91, label %89

89:                                               ; preds = %85
  %90 = bitcast double* %87 to i8*
  tail call void @_ZdlPv(i8* nonnull %90) #2
  br label %91

91:                                               ; preds = %89, %85
  %92 = getelementptr inbounds %struct.Mesh, %struct.Mesh* %0, i64 0, i32 31, i32 0, i32 0, i32 0, i32 0
  %93 = load double*, double** %92, align 8, !tbaa !3
  %94 = icmp eq double* %93, null
  br i1 %94, label %97, label %95

95:                                               ; preds = %91
  %96 = bitcast double* %93 to i8*
  tail call void @_ZdlPv(i8* nonnull %96) #2
  br label %97

97:                                               ; preds = %95, %91
  %98 = getelementptr inbounds %struct.Mesh, %struct.Mesh* %0, i64 0, i32 30, i32 0, i32 0, i32 0, i32 0
  %99 = load double*, double** %98, align 8, !tbaa !3
  %100 = icmp eq double* %99, null
  br i1 %100, label %103, label %101

101:                                              ; preds = %97
  %102 = bitcast double* %99 to i8*
  tail call void @_ZdlPv(i8* nonnull %102) #2
  br label %103

103:                                              ; preds = %101, %97
  %104 = getelementptr inbounds %struct.Mesh, %struct.Mesh* %0, i64 0, i32 29, i32 0, i32 0, i32 0, i32 0
  %105 = load double*, double** %104, align 8, !tbaa !3
  %106 = icmp eq double* %105, null
  br i1 %106, label %109, label %107

107:                                              ; preds = %103
  %108 = bitcast double* %105 to i8*
  tail call void @_ZdlPv(i8* nonnull %108) #2
  br label %109

109:                                              ; preds = %107, %103
  %110 = getelementptr inbounds %struct.Mesh, %struct.Mesh* %0, i64 0, i32 28, i32 0, i32 0, i32 0, i32 0
  %111 = load double*, double** %110, align 8, !tbaa !3
  %112 = icmp eq double* %111, null
  br i1 %112, label %115, label %113

113:                                              ; preds = %109
  %114 = bitcast double* %111 to i8*
  tail call void @_ZdlPv(i8* nonnull %114) #2
  br label %115

115:                                              ; preds = %113, %109
  %116 = getelementptr inbounds %struct.Mesh, %struct.Mesh* %0, i64 0, i32 27, i32 0, i32 0, i32 0, i32 0
  %117 = load double*, double** %116, align 8, !tbaa !3
  %118 = icmp eq double* %117, null
  br i1 %118, label %121, label %119

119:                                              ; preds = %115
  %120 = bitcast double* %117 to i8*
  tail call void @_ZdlPv(i8* nonnull %120) #2
  br label %121

121:                                              ; preds = %119, %115
  %122 = getelementptr inbounds %struct.Mesh, %struct.Mesh* %0, i64 0, i32 26, i32 0, i32 0, i32 0, i32 0
  %123 = load double*, double** %122, align 8, !tbaa !3
  %124 = icmp eq double* %123, null
  br i1 %124, label %127, label %125

125:                                              ; preds = %121
  %126 = bitcast double* %123 to i8*
  tail call void @_ZdlPv(i8* nonnull %126) #2
  br label %127

127:                                              ; preds = %125, %121
  %128 = getelementptr inbounds %struct.Mesh, %struct.Mesh* %0, i64 0, i32 25, i32 0, i32 0, i32 0, i32 0
  %129 = load double*, double** %128, align 8, !tbaa !3
  %130 = icmp eq double* %129, null
  br i1 %130, label %133, label %131

131:                                              ; preds = %127
  %132 = bitcast double* %129 to i8*
  tail call void @_ZdlPv(i8* nonnull %132) #2
  br label %133

133:                                              ; preds = %131, %127
  %134 = getelementptr inbounds %struct.Mesh, %struct.Mesh* %0, i64 0, i32 24, i32 0, i32 0, i32 0, i32 0
  %135 = load i32*, i32** %134, align 8, !tbaa !8
  %136 = icmp eq i32* %135, null
  br i1 %136, label %139, label %137

137:                                              ; preds = %133
  %138 = bitcast i32* %135 to i8*
  tail call void @_ZdlPv(i8* nonnull %138) #2
  br label %139

139:                                              ; preds = %137, %133
  %140 = getelementptr inbounds %struct.Mesh, %struct.Mesh* %0, i64 0, i32 23, i32 0, i32 0, i32 0, i32 0
  %141 = load i32*, i32** %140, align 8, !tbaa !8
  %142 = icmp eq i32* %141, null
  br i1 %142, label %145, label %143

143:                                              ; preds = %139
  %144 = bitcast i32* %141 to i8*
  tail call void @_ZdlPv(i8* nonnull %144) #2
  br label %145

145:                                              ; preds = %143, %139
  %146 = getelementptr inbounds %struct.Mesh, %struct.Mesh* %0, i64 0, i32 22, i32 0, i32 0, i32 0, i32 0
  %147 = load i32*, i32** %146, align 8, !tbaa !8
  %148 = icmp eq i32* %147, null
  br i1 %148, label %151, label %149

149:                                              ; preds = %145
  %150 = bitcast i32* %147 to i8*
  tail call void @_ZdlPv(i8* nonnull %150) #2
  br label %151

151:                                              ; preds = %149, %145
  %152 = getelementptr inbounds %struct.Mesh, %struct.Mesh* %0, i64 0, i32 21, i32 0, i32 0, i32 0, i32 0
  %153 = load i32*, i32** %152, align 8, !tbaa !8
  %154 = icmp eq i32* %153, null
  br i1 %154, label %157, label %155

155:                                              ; preds = %151
  %156 = bitcast i32* %153 to i8*
  tail call void @_ZdlPv(i8* nonnull %156) #2
  br label %157

157:                                              ; preds = %155, %151
  %158 = getelementptr inbounds %struct.Mesh, %struct.Mesh* %0, i64 0, i32 20, i32 0, i32 0, i32 0, i32 0
  %159 = load i32*, i32** %158, align 8, !tbaa !8
  %160 = icmp eq i32* %159, null
  br i1 %160, label %163, label %161

161:                                              ; preds = %157
  %162 = bitcast i32* %159 to i8*
  tail call void @_ZdlPv(i8* nonnull %162) #2
  br label %163

163:                                              ; preds = %161, %157
  %164 = getelementptr inbounds %struct.Mesh, %struct.Mesh* %0, i64 0, i32 19, i32 0, i32 0, i32 0, i32 0
  %165 = load i32*, i32** %164, align 8, !tbaa !8
  %166 = icmp eq i32* %165, null
  br i1 %166, label %169, label %167

167:                                              ; preds = %163
  %168 = bitcast i32* %165 to i8*
  tail call void @_ZdlPv(i8* nonnull %168) #2
  br label %169

169:                                              ; preds = %167, %163
  %170 = getelementptr inbounds %struct.Mesh, %struct.Mesh* %0, i64 0, i32 18, i32 0, i32 0, i32 0, i32 0
  %171 = load i32*, i32** %170, align 8, !tbaa !8
  %172 = icmp eq i32* %171, null
  br i1 %172, label %175, label %173

173:                                              ; preds = %169
  %174 = bitcast i32* %171 to i8*
  tail call void @_ZdlPv(i8* nonnull %174) #2
  br label %175

175:                                              ; preds = %173, %169
  %176 = getelementptr inbounds %struct.Mesh, %struct.Mesh* %0, i64 0, i32 17, i32 0, i32 0, i32 0, i32 0
  %177 = load i32*, i32** %176, align 8, !tbaa !8
  %178 = icmp eq i32* %177, null
  br i1 %178, label %181, label %179

179:                                              ; preds = %175
  %180 = bitcast i32* %177 to i8*
  tail call void @_ZdlPv(i8* nonnull %180) #2
  br label %181

181:                                              ; preds = %179, %175
  %182 = getelementptr inbounds %struct.Mesh, %struct.Mesh* %0, i64 0, i32 16, i32 0, i32 0, i32 0, i32 0
  %183 = load i32*, i32** %182, align 8, !tbaa !8
  %184 = icmp eq i32* %183, null
  br i1 %184, label %187, label %185

185:                                              ; preds = %181
  %186 = bitcast i32* %183 to i8*
  tail call void @_ZdlPv(i8* nonnull %186) #2
  br label %187

187:                                              ; preds = %185, %181
  %188 = getelementptr inbounds %struct.Mesh, %struct.Mesh* %0, i64 0, i32 15, i32 0, i32 0, i32 0, i32 0
  %189 = load i32*, i32** %188, align 8, !tbaa !8
  %190 = icmp eq i32* %189, null
  br i1 %190, label %193, label %191

191:                                              ; preds = %187
  %192 = bitcast i32* %189 to i8*
  tail call void @_ZdlPv(i8* nonnull %192) #2
  br label %193

193:                                              ; preds = %191, %187
  %194 = getelementptr inbounds %struct.Mesh, %struct.Mesh* %0, i64 0, i32 14, i32 0, i32 0, i32 0, i32 0
  %195 = load i32*, i32** %194, align 8, !tbaa !8
  %196 = icmp eq i32* %195, null
  br i1 %196, label %199, label %197

197:                                              ; preds = %193
  %198 = bitcast i32* %195 to i8*
  tail call void @_ZdlPv(i8* nonnull %198) #2
  br label %199

199:                                              ; preds = %197, %193
  %200 = getelementptr inbounds %struct.Mesh, %struct.Mesh* %0, i64 0, i32 13, i32 0, i32 0, i32 0, i32 0
  %201 = load i32*, i32** %200, align 8, !tbaa !8
  %202 = icmp eq i32* %201, null
  br i1 %202, label %205, label %203

203:                                              ; preds = %199
  %204 = bitcast i32* %201 to i8*
  tail call void @_ZdlPv(i8* nonnull %204) #2
  br label %205

205:                                              ; preds = %203, %199
  %206 = getelementptr inbounds %struct.Mesh, %struct.Mesh* %0, i64 0, i32 12, i32 0, i32 0, i32 0, i32 0
  %207 = load double*, double** %206, align 8, !tbaa !3
  %208 = icmp eq double* %207, null
  br i1 %208, label %211, label %209

209:                                              ; preds = %205
  %210 = bitcast double* %207 to i8*
  tail call void @_ZdlPv(i8* nonnull %210) #2
  br label %211

211:                                              ; preds = %209, %205
  %212 = getelementptr inbounds %struct.Mesh, %struct.Mesh* %0, i64 0, i32 11, i32 0, i32 0, i32 0, i32 0
  %213 = load double*, double** %212, align 8, !tbaa !3
  %214 = icmp eq double* %213, null
  br i1 %214, label %217, label %215

215:                                              ; preds = %211
  %216 = bitcast double* %213 to i8*
  tail call void @_ZdlPv(i8* nonnull %216) #2
  br label %217

217:                                              ; preds = %215, %211
  %218 = getelementptr inbounds %struct.Mesh, %struct.Mesh* %0, i64 0, i32 10, i32 0, i32 0, i32 0, i32 0
  %219 = load double*, double** %218, align 8, !tbaa !3
  %220 = icmp eq double* %219, null
  br i1 %220, label %223, label %221

221:                                              ; preds = %217
  %222 = bitcast double* %219 to i8*
  tail call void @_ZdlPv(i8* nonnull %222) #2
  br label %223

223:                                              ; preds = %221, %217
  %224 = getelementptr inbounds %struct.Mesh, %struct.Mesh* %0, i64 0, i32 9, i32 0, i32 0, i32 0, i32 0
  %225 = load double*, double** %224, align 8, !tbaa !3
  %226 = icmp eq double* %225, null
  br i1 %226, label %229, label %227

227:                                              ; preds = %223
  %228 = bitcast double* %225 to i8*
  tail call void @_ZdlPv(i8* nonnull %228) #2
  br label %229

229:                                              ; preds = %227, %223
  %230 = getelementptr inbounds %struct.Mesh, %struct.Mesh* %0, i64 0, i32 8, i32 0, i32 0, i32 0, i32 0
  %231 = load double*, double** %230, align 8, !tbaa !3
  %232 = icmp eq double* %231, null
  br i1 %232, label %235, label %233

233:                                              ; preds = %229
  %234 = bitcast double* %231 to i8*
  tail call void @_ZdlPv(i8* nonnull %234) #2
  br label %235

235:                                              ; preds = %233, %229
  %236 = getelementptr inbounds %struct.Mesh, %struct.Mesh* %0, i64 0, i32 7, i32 0, i32 0, i32 0, i32 0
  %237 = load double*, double** %236, align 8, !tbaa !3
  %238 = icmp eq double* %237, null
  br i1 %238, label %241, label %239

239:                                              ; preds = %235
  %240 = bitcast double* %237 to i8*
  tail call void @_ZdlPv(i8* nonnull %240) #2
  br label %241

241:                                              ; preds = %239, %235
  %242 = getelementptr inbounds %struct.Mesh, %struct.Mesh* %0, i64 0, i32 6, i32 0, i32 0, i32 0, i32 0
  %243 = load double*, double** %242, align 8, !tbaa !3
  %244 = icmp eq double* %243, null
  br i1 %244, label %247, label %245

245:                                              ; preds = %241
  %246 = bitcast double* %243 to i8*
  tail call void @_ZdlPv(i8* nonnull %246) #2
  br label %247

247:                                              ; preds = %245, %241
  %248 = getelementptr inbounds %struct.Mesh, %struct.Mesh* %0, i64 0, i32 5, i32 0, i32 0, i32 0, i32 0
  %249 = load double*, double** %248, align 8, !tbaa !3
  %250 = icmp eq double* %249, null
  br i1 %250, label %253, label %251

251:                                              ; preds = %247
  %252 = bitcast double* %249 to i8*
  tail call void @_ZdlPv(i8* nonnull %252) #2
  br label %253

253:                                              ; preds = %251, %247
  %254 = getelementptr inbounds %struct.Mesh, %struct.Mesh* %0, i64 0, i32 4, i32 0, i32 0, i32 0, i32 0
  %255 = load double*, double** %254, align 8, !tbaa !3
  %256 = icmp eq double* %255, null
  br i1 %256, label %259, label %257

257:                                              ; preds = %253
  %258 = bitcast double* %255 to i8*
  tail call void @_ZdlPv(i8* nonnull %258) #2
  br label %259

259:                                              ; preds = %257, %253
  %260 = getelementptr inbounds %struct.Mesh, %struct.Mesh* %0, i64 0, i32 3, i32 0, i32 0, i32 0, i32 0
  %261 = load double*, double** %260, align 8, !tbaa !3
  %262 = icmp eq double* %261, null
  br i1 %262, label %265, label %263

263:                                              ; preds = %259
  %264 = bitcast double* %261 to i8*
  tail call void @_ZdlPv(i8* nonnull %264) #2
  br label %265

265:                                              ; preds = %263, %259
  %266 = getelementptr inbounds %struct.Mesh, %struct.Mesh* %0, i64 0, i32 2, i32 0, i32 0, i32 0, i32 0
  %267 = load double*, double** %266, align 8, !tbaa !3
  %268 = icmp eq double* %267, null
  br i1 %268, label %271, label %269

269:                                              ; preds = %265
  %270 = bitcast double* %267 to i8*
  tail call void @_ZdlPv(i8* nonnull %270) #2
  br label %271

271:                                              ; preds = %269, %265
  %272 = getelementptr inbounds %struct.Mesh, %struct.Mesh* %0, i64 0, i32 1, i32 0, i32 0, i32 0, i32 0
  %273 = load double*, double** %272, align 8, !tbaa !3
  %274 = icmp eq double* %273, null
  br i1 %274, label %277, label %275

275:                                              ; preds = %271
  %276 = bitcast double* %273 to i8*
  tail call void @_ZdlPv(i8* nonnull %276) #2
  br label %277

277:                                              ; preds = %275, %271
  %278 = getelementptr inbounds %struct.Mesh, %struct.Mesh* %0, i64 0, i32 0, i32 0, i32 0, i32 0, i32 0
  %279 = load double*, double** %278, align 8, !tbaa !3
  %280 = icmp eq double* %279, null
  br i1 %280, label %283, label %281

281:                                              ; preds = %277
  %282 = bitcast double* %279 to i8*
  tail call void @_ZdlPv(i8* nonnull %282) #2
  br label %283

283:                                              ; preds = %281, %277
  ret void
}

declare dso_local i32 @__gxx_personality_v0(...)

; Function Attrs: nobuiltin nounwind
declare dso_local void @_ZdlPv(i8*) local_unnamed_addr #4

; Function Attrs: mustprogress nofree noinline norecurse nosync nounwind uwtable willreturn
define dso_local void @_Z13TimeIncrementv() local_unnamed_addr #5 {
  %1 = load double, double* getelementptr inbounds (%struct.Mesh, %struct.Mesh* @mesh, i64 0, i32 52), align 8, !tbaa !10
  %2 = load double, double* getelementptr inbounds (%struct.Mesh, %struct.Mesh* @mesh, i64 0, i32 48), align 8, !tbaa !10
  %3 = fsub double %1, %2
  %4 = load double, double* getelementptr inbounds (%struct.Mesh, %struct.Mesh* @mesh, i64 0, i32 47), align 8, !tbaa !10
  %5 = fcmp ugt double %4, 0.000000e+00
  %6 = load i32, i32* getelementptr inbounds (%struct.Mesh, %struct.Mesh* @mesh, i64 0, i32 75), align 8
  %7 = icmp eq i32 %6, 0
  %8 = select i1 %5, i1 true, i1 %7
  %9 = load double, double* getelementptr inbounds (%struct.Mesh, %struct.Mesh* @mesh, i64 0, i32 49), align 8, !tbaa !10
  br i1 %8, label %37, label %10

10:                                               ; preds = %0
  %11 = load double, double* getelementptr inbounds (%struct.Mesh, %struct.Mesh* @mesh, i64 0, i32 72), align 8, !tbaa !10
  %12 = fcmp olt double %11, 1.000000e+20
  %13 = fmul double %11, 5.000000e-01
  %14 = select i1 %12, double %13, double 1.000000e+20
  %15 = load double, double* getelementptr inbounds (%struct.Mesh, %struct.Mesh* @mesh, i64 0, i32 73), align 8, !tbaa !10
  %16 = fcmp olt double %15, %14
  br i1 %16, label %17, label %20

17:                                               ; preds = %10
  %18 = fmul double %15, 2.000000e+00
  %19 = fdiv double %18, 3.000000e+00
  br label %20

20:                                               ; preds = %17, %10
  %21 = phi double [ %19, %17 ], [ %14, %10 ]
  %22 = fdiv double %21, %9
  %23 = fcmp ult double %22, 1.000000e+00
  br i1 %23, label %32, label %24

24:                                               ; preds = %20
  %25 = load double, double* getelementptr inbounds (%struct.Mesh, %struct.Mesh* @mesh, i64 0, i32 50), align 8, !tbaa !10
  %26 = fcmp olt double %22, %25
  br i1 %26, label %32, label %27

27:                                               ; preds = %24
  %28 = load double, double* getelementptr inbounds (%struct.Mesh, %struct.Mesh* @mesh, i64 0, i32 51), align 8, !tbaa !10
  %29 = fcmp ogt double %22, %28
  br i1 %29, label %30, label %32

30:                                               ; preds = %27
  %31 = fmul double %9, %28
  br label %32

32:                                               ; preds = %30, %27, %24, %20
  %33 = phi double [ %31, %30 ], [ %21, %27 ], [ %21, %20 ], [ %9, %24 ]
  %34 = load double, double* getelementptr inbounds (%struct.Mesh, %struct.Mesh* @mesh, i64 0, i32 74), align 8, !tbaa !10
  %35 = fcmp ogt double %33, %34
  %36 = select i1 %35, double %34, double %33
  store double %36, double* getelementptr inbounds (%struct.Mesh, %struct.Mesh* @mesh, i64 0, i32 49), align 8, !tbaa !10
  br label %37

37:                                               ; preds = %32, %0
  %38 = phi double [ %36, %32 ], [ %9, %0 ]
  %39 = fcmp ogt double %3, %38
  br i1 %39, label %40, label %47

40:                                               ; preds = %37
  %41 = fmul double %38, 4.000000e+00
  %42 = fdiv double %41, 3.000000e+00
  %43 = fcmp olt double %3, %42
  br i1 %43, label %44, label %47

44:                                               ; preds = %40
  %45 = fmul double %38, 2.000000e+00
  %46 = fdiv double %45, 3.000000e+00
  br label %47

47:                                               ; preds = %44, %40, %37
  %48 = phi double [ %46, %44 ], [ %3, %40 ], [ %3, %37 ]
  %49 = fcmp olt double %48, %38
  br i1 %49, label %50, label %51

50:                                               ; preds = %47
  store double %48, double* getelementptr inbounds (%struct.Mesh, %struct.Mesh* @mesh, i64 0, i32 49), align 8, !tbaa !10
  br label %51

51:                                               ; preds = %50, %47
  %52 = phi double [ %48, %50 ], [ %38, %47 ]
  %53 = fadd double %2, %52
  store double %53, double* getelementptr inbounds (%struct.Mesh, %struct.Mesh* @mesh, i64 0, i32 48), align 8, !tbaa !10
  %54 = add nsw i32 %6, 1
  store i32 %54, i32* getelementptr inbounds (%struct.Mesh, %struct.Mesh* @mesh, i64 0, i32 75), align 8, !tbaa !12
  ret void
}

; Function Attrs: mustprogress nofree noinline norecurse nosync nounwind uwtable
define dso_local void @_Z23InitStressTermsForElemsiPdS_S_(i32 %0, double* nocapture %1, double* nocapture %2, double* nocapture %3) local_unnamed_addr #6 {
  %5 = load double*, double** getelementptr inbounds (%struct.Mesh, %struct.Mesh* @mesh, i64 0, i32 35, i32 0, i32 0, i32 0, i32 0), align 8
  %6 = load double*, double** getelementptr inbounds (%struct.Mesh, %struct.Mesh* @mesh, i64 0, i32 36, i32 0, i32 0, i32 0, i32 0), align 8
  %7 = icmp sgt i32 %0, 0
  br i1 %7, label %8, label %.loopexit

8:                                                ; preds = %4
  %9 = zext i32 %0 to i64
  br label %10

.loopexit:                                        ; preds = %10, %4
  ret void

10:                                               ; preds = %10, %8
  %11 = phi i64 [ 0, %8 ], [ %21, %10 ]
  %12 = getelementptr inbounds double, double* %5, i64 %11
  %13 = load double, double* %12, align 8, !tbaa !10
  %14 = fneg double %13
  %15 = getelementptr inbounds double, double* %6, i64 %11
  %16 = load double, double* %15, align 8, !tbaa !10
  %17 = fsub double %14, %16
  %18 = getelementptr inbounds double, double* %3, i64 %11
  store double %17, double* %18, align 8, !tbaa !10
  %19 = getelementptr inbounds double, double* %2, i64 %11
  store double %17, double* %19, align 8, !tbaa !10
  %20 = getelementptr inbounds double, double* %1, i64 %11
  store double %17, double* %20, align 8, !tbaa !10
  %21 = add nuw nsw i64 %11, 1
  %22 = icmp eq i64 %21, %9
  br i1 %22, label %.loopexit, label %10, !llvm.loop !14
}

; Function Attrs: mustprogress nofree noinline norecurse nosync nounwind uwtable willreturn
define dso_local void @_Z32CalcElemShapeFunctionDerivativesPKdS0_S0_PA8_dPd(double* nocapture readonly %0, double* nocapture readonly %1, double* nocapture readonly %2, [8 x double]* %3, double* nocapture %4) local_unnamed_addr #5 {
  %6 = load double, double* %0, align 8, !tbaa !10
  %7 = getelementptr inbounds double, double* %0, i64 1
  %8 = load double, double* %7, align 8, !tbaa !10
  %9 = getelementptr inbounds double, double* %0, i64 2
  %10 = load double, double* %9, align 8, !tbaa !10
  %11 = getelementptr inbounds double, double* %0, i64 3
  %12 = load double, double* %11, align 8, !tbaa !10
  %13 = getelementptr inbounds double, double* %0, i64 4
  %14 = load double, double* %13, align 8, !tbaa !10
  %15 = getelementptr inbounds double, double* %0, i64 5
  %16 = load double, double* %15, align 8, !tbaa !10
  %17 = getelementptr inbounds double, double* %0, i64 6
  %18 = load double, double* %17, align 8, !tbaa !10
  %19 = getelementptr inbounds double, double* %0, i64 7
  %20 = load double, double* %19, align 8, !tbaa !10
  %21 = load double, double* %1, align 8, !tbaa !10
  %22 = getelementptr inbounds double, double* %1, i64 1
  %23 = load double, double* %22, align 8, !tbaa !10
  %24 = getelementptr inbounds double, double* %1, i64 2
  %25 = load double, double* %24, align 8, !tbaa !10
  %26 = getelementptr inbounds double, double* %1, i64 3
  %27 = load double, double* %26, align 8, !tbaa !10
  %28 = getelementptr inbounds double, double* %1, i64 4
  %29 = load double, double* %28, align 8, !tbaa !10
  %30 = getelementptr inbounds double, double* %1, i64 5
  %31 = load double, double* %30, align 8, !tbaa !10
  %32 = getelementptr inbounds double, double* %1, i64 6
  %33 = load double, double* %32, align 8, !tbaa !10
  %34 = getelementptr inbounds double, double* %1, i64 7
  %35 = load double, double* %34, align 8, !tbaa !10
  %36 = load double, double* %2, align 8, !tbaa !10
  %37 = getelementptr inbounds double, double* %2, i64 1
  %38 = load double, double* %37, align 8, !tbaa !10
  %39 = getelementptr inbounds double, double* %2, i64 2
  %40 = load double, double* %39, align 8, !tbaa !10
  %41 = getelementptr inbounds double, double* %2, i64 3
  %42 = load double, double* %41, align 8, !tbaa !10
  %43 = getelementptr inbounds double, double* %2, i64 4
  %44 = load double, double* %43, align 8, !tbaa !10
  %45 = getelementptr inbounds double, double* %2, i64 5
  %46 = load double, double* %45, align 8, !tbaa !10
  %47 = getelementptr inbounds double, double* %2, i64 6
  %48 = load double, double* %47, align 8, !tbaa !10
  %49 = getelementptr inbounds double, double* %2, i64 7
  %50 = load double, double* %49, align 8, !tbaa !10
  %51 = insertelement <2 x double> poison, double %16, i32 0
  %52 = insertelement <2 x double> %51, double %33, i32 1
  %53 = insertelement <2 x double> poison, double %12, i32 0
  %54 = insertelement <2 x double> %53, double %21, i32 1
  %55 = fsub <2 x double> %52, %54
  %56 = insertelement <2 x double> poison, double %18, i32 0
  %57 = insertelement <2 x double> %56, double %31, i32 1
  %58 = insertelement <2 x double> poison, double %6, i32 0
  %59 = insertelement <2 x double> %58, double %27, i32 1
  %60 = fsub <2 x double> %57, %59
  %61 = fadd <2 x double> %60, %55
  %62 = extractelement <2 x double> %61, i32 0
  %63 = fsub double %20, %8
  %64 = insertelement <2 x double> poison, double %14, i32 0
  %65 = shufflevector <2 x double> %64, <2 x double> %61, <2 x i32> <i32 0, i32 2>
  %66 = insertelement <2 x double> poison, double %10, i32 0
  %67 = insertelement <2 x double> %66, double %63, i32 1
  %68 = fsub <2 x double> %65, %67
  %69 = fadd double %63, %62
  %70 = insertelement <2 x double> poison, double %69, i32 0
  %71 = shufflevector <2 x double> %70, <2 x double> %68, <2 x i32> <i32 0, i32 2>
  %72 = fadd <2 x double> %68, %71
  %73 = fsub <2 x double> %68, %71
  %74 = shufflevector <2 x double> %72, <2 x double> %73, <2 x i32> <i32 0, i32 3>
  %75 = fmul <2 x double> %74, <double 1.250000e-01, double 1.250000e-01>
  %76 = fsub <2 x double> %60, %55
  %77 = shufflevector <2 x double> %76, <2 x double> %61, <2 x i32> <i32 0, i32 3>
  %78 = extractelement <2 x double> %55, i32 1
  %79 = insertelement <2 x double> poison, double %78, i32 0
  %80 = insertelement <2 x double> %79, double %35, i32 1
  %81 = extractelement <2 x double> %60, i32 1
  %82 = insertelement <2 x double> poison, double %81, i32 0
  %83 = insertelement <2 x double> %82, double %23, i32 1
  %84 = fsub <2 x double> %80, %83
  %85 = insertelement <2 x double> %84, double %63, i32 0
  %86 = fadd <2 x double> %77, %85
  %87 = fsub <2 x double> %77, %85
  %88 = shufflevector <2 x double> %86, <2 x double> %87, <2 x i32> <i32 0, i32 3>
  %89 = fsub double %29, %25
  %90 = insertelement <2 x double> %68, double %89, i32 1
  %91 = fsub <2 x double> %88, %90
  %92 = fmul <2 x double> %91, <double 1.250000e-01, double 1.250000e-01>
  %93 = shufflevector <2 x double> %84, <2 x double> %61, <2 x i32> <i32 1, i32 3>
  %94 = fadd <2 x double> %84, %93
  %95 = insertelement <2 x double> poison, double %89, i32 0
  %96 = shufflevector <2 x double> %95, <2 x double> poison, <2 x i32> zeroinitializer
  %97 = fsub <2 x double> %94, %96
  %98 = fadd <2 x double> %96, %94
  %99 = shufflevector <2 x double> %97, <2 x double> %98, <2 x i32> <i32 0, i32 3>
  %100 = fmul <2 x double> %99, <double 1.250000e-01, double 1.250000e-01>
  %101 = fsub double %48, %36
  %102 = fsub double %46, %42
  %103 = fadd double %102, %101
  %104 = fsub double %50, %38
  %105 = insertelement <2 x double> poison, double %44, i32 0
  %106 = insertelement <2 x double> %105, double %103, i32 1
  %107 = insertelement <2 x double> poison, double %40, i32 0
  %108 = insertelement <2 x double> %107, double %104, i32 1
  %109 = fsub <2 x double> %106, %108
  %110 = fsub double %101, %102
  %111 = fadd double %110, %104
  %112 = extractelement <2 x double> %109, i32 0
  %113 = fsub double %111, %112
  %114 = fmul double %113, 1.250000e-01
  %115 = fadd double %103, %104
  %116 = insertelement <2 x double> poison, double %115, i32 0
  %117 = shufflevector <2 x double> %116, <2 x double> %109, <2 x i32> <i32 0, i32 2>
  %118 = fadd <2 x double> %109, %117
  %119 = fsub <2 x double> %109, %117
  %120 = shufflevector <2 x double> %118, <2 x double> %119, <2 x i32> <i32 0, i32 3>
  %121 = fmul <2 x double> %120, <double 1.250000e-01, double 1.250000e-01>
  %122 = fmul <2 x double> %100, %121
  %123 = extractelement <2 x double> %92, i32 1
  %124 = shufflevector <2 x double> %100, <2 x double> undef, <2 x i32> <i32 1, i32 undef>
  %125 = shufflevector <2 x double> %124, <2 x double> %92, <2 x i32> <i32 0, i32 3>
  %126 = insertelement <2 x double> poison, double %114, i32 0
  %127 = shufflevector <2 x double> %126, <2 x double> %121, <2 x i32> <i32 0, i32 2>
  %128 = fmul <2 x double> %125, %127
  %129 = fsub <2 x double> %122, %128
  %130 = fmul double %123, %114
  %131 = extractelement <2 x double> %100, i32 0
  %132 = extractelement <2 x double> %121, i32 1
  %133 = fmul double %131, %132
  %134 = fsub double %130, %133
  %135 = fmul <2 x double> %75, %127
  %136 = extractelement <2 x double> %92, i32 0
  %137 = shufflevector <2 x double> %92, <2 x double> %75, <2 x i32> <i32 0, i32 2>
  %138 = fmul <2 x double> %137, %121
  %139 = fsub <2 x double> %135, %138
  %140 = fmul double %136, %132
  %141 = extractelement <2 x double> %75, i32 1
  %142 = fmul double %141, %114
  %143 = fsub double %140, %142
  %144 = shufflevector <2 x double> %124, <2 x double> %75, <2 x i32> <i32 0, i32 2>
  %145 = fmul <2 x double> %92, %144
  %146 = fmul <2 x double> %75, %100
  %147 = fsub <2 x double> %145, %146
  %148 = fmul double %141, %131
  %149 = fmul double %136, %123
  %150 = fsub double %148, %149
  %151 = extractelement <2 x double> %129, i32 0
  %152 = fneg double %151
  %153 = getelementptr inbounds [8 x double], [8 x double]* %3, i64 0, i64 0
  %154 = extractelement <2 x double> %129, i32 1
  %155 = insertelement <2 x double> poison, double %154, i32 0
  %156 = insertelement <2 x double> %155, double %152, i32 1
  %157 = fsub <2 x double> %156, %129
  %158 = insertelement <2 x double> poison, double %134, i32 0
  %159 = shufflevector <2 x double> %158, <2 x double> poison, <2 x i32> zeroinitializer
  %160 = fsub <2 x double> %157, %159
  %161 = extractelement <2 x double> %160, i32 1
  store double %161, double* %153, align 8, !tbaa !10
  %162 = fsub double %151, %154
  %163 = fsub double %162, %134
  %164 = getelementptr inbounds [8 x double], [8 x double]* %3, i64 0, i64 1
  store double %163, double* %164, align 8, !tbaa !10
  %165 = fadd double %151, %154
  %166 = fsub double %165, %134
  %167 = getelementptr inbounds [8 x double], [8 x double]* %3, i64 0, i64 2
  store double %166, double* %167, align 8, !tbaa !10
  %168 = getelementptr inbounds [8 x double], [8 x double]* %3, i64 0, i64 3
  %169 = extractelement <2 x double> %160, i32 0
  store double %169, double* %168, align 8, !tbaa !10
  %170 = fneg double %166
  %171 = getelementptr inbounds [8 x double], [8 x double]* %3, i64 0, i64 4
  store double %170, double* %171, align 8, !tbaa !10
  %172 = getelementptr inbounds [8 x double], [8 x double]* %3, i64 0, i64 5
  %173 = fneg <2 x double> %160
  %174 = bitcast double* %172 to <2 x double>*
  store <2 x double> %173, <2 x double>* %174, align 8, !tbaa !10
  %175 = fneg double %163
  %176 = getelementptr inbounds [8 x double], [8 x double]* %3, i64 0, i64 7
  store double %175, double* %176, align 8, !tbaa !10
  %177 = extractelement <2 x double> %139, i32 0
  %178 = fneg double %177
  %179 = getelementptr inbounds [8 x double], [8 x double]* %3, i64 1, i64 0
  %180 = extractelement <2 x double> %139, i32 1
  %181 = insertelement <2 x double> poison, double %180, i32 0
  %182 = insertelement <2 x double> %181, double %178, i32 1
  %183 = fsub <2 x double> %182, %139
  %184 = insertelement <2 x double> poison, double %143, i32 0
  %185 = shufflevector <2 x double> %184, <2 x double> poison, <2 x i32> zeroinitializer
  %186 = fsub <2 x double> %183, %185
  %187 = extractelement <2 x double> %186, i32 1
  store double %187, double* %179, align 8, !tbaa !10
  %188 = fsub double %177, %180
  %189 = fsub double %188, %143
  %190 = getelementptr inbounds [8 x double], [8 x double]* %3, i64 1, i64 1
  store double %189, double* %190, align 8, !tbaa !10
  %191 = fadd double %177, %180
  %192 = fsub double %191, %143
  %193 = getelementptr inbounds [8 x double], [8 x double]* %3, i64 1, i64 2
  store double %192, double* %193, align 8, !tbaa !10
  %194 = getelementptr inbounds [8 x double], [8 x double]* %3, i64 1, i64 3
  %195 = extractelement <2 x double> %186, i32 0
  store double %195, double* %194, align 8, !tbaa !10
  %196 = fneg double %192
  %197 = getelementptr inbounds [8 x double], [8 x double]* %3, i64 1, i64 4
  store double %196, double* %197, align 8, !tbaa !10
  %198 = getelementptr inbounds [8 x double], [8 x double]* %3, i64 1, i64 5
  %199 = fneg <2 x double> %186
  %200 = bitcast double* %198 to <2 x double>*
  store <2 x double> %199, <2 x double>* %200, align 8, !tbaa !10
  %201 = fneg double %189
  %202 = getelementptr inbounds [8 x double], [8 x double]* %3, i64 1, i64 7
  store double %201, double* %202, align 8, !tbaa !10
  %203 = extractelement <2 x double> %147, i32 0
  %204 = fneg double %203
  %205 = getelementptr inbounds [8 x double], [8 x double]* %3, i64 2, i64 0
  %206 = extractelement <2 x double> %147, i32 1
  %207 = insertelement <2 x double> poison, double %206, i32 0
  %208 = insertelement <2 x double> %207, double %204, i32 1
  %209 = fsub <2 x double> %208, %147
  %210 = insertelement <2 x double> poison, double %150, i32 0
  %211 = shufflevector <2 x double> %210, <2 x double> poison, <2 x i32> zeroinitializer
  %212 = fsub <2 x double> %209, %211
  %213 = extractelement <2 x double> %212, i32 1
  store double %213, double* %205, align 8, !tbaa !10
  %214 = fsub double %203, %206
  %215 = fsub double %214, %150
  %216 = getelementptr inbounds [8 x double], [8 x double]* %3, i64 2, i64 1
  store double %215, double* %216, align 8, !tbaa !10
  %217 = fadd double %203, %206
  %218 = fsub double %217, %150
  %219 = getelementptr inbounds [8 x double], [8 x double]* %3, i64 2, i64 2
  store double %218, double* %219, align 8, !tbaa !10
  %220 = getelementptr inbounds [8 x double], [8 x double]* %3, i64 2, i64 3
  %221 = extractelement <2 x double> %212, i32 0
  store double %221, double* %220, align 8, !tbaa !10
  %222 = fneg double %218
  %223 = getelementptr inbounds [8 x double], [8 x double]* %3, i64 2, i64 4
  store double %222, double* %223, align 8, !tbaa !10
  %224 = getelementptr inbounds [8 x double], [8 x double]* %3, i64 2, i64 5
  %225 = fneg <2 x double> %212
  %226 = bitcast double* %224 to <2 x double>*
  store <2 x double> %225, <2 x double>* %226, align 8, !tbaa !10
  %227 = fneg double %215
  %228 = getelementptr inbounds [8 x double], [8 x double]* %3, i64 2, i64 7
  store double %227, double* %228, align 8, !tbaa !10
  %229 = fmul double %136, %154
  %230 = fmul double %131, %180
  %231 = fadd double %229, %230
  %232 = fmul double %114, %206
  %233 = fadd double %232, %231
  %234 = fmul double %233, 8.000000e+00
  store double %234, double* %4, align 8, !tbaa !10
  ret void
}

; Function Attrs: mustprogress nofree noinline norecurse nosync nounwind uwtable willreturn
define dso_local void @_Z17SumElemFaceNormalPdS_S_S_S_S_S_S_S_S_S_S_dddddddddddd(double* nocapture %0, double* nocapture %1, double* nocapture %2, double* nocapture %3, double* nocapture %4, double* nocapture %5, double* nocapture %6, double* nocapture %7, double* nocapture %8, double* nocapture %9, double* nocapture %10, double* nocapture %11, double %12, double %13, double %14, double %15, double %16, double %17, double %18, double %19, double %20, double %21, double %22, double %23) local_unnamed_addr #5 {
  %25 = fadd double %18, %21
  %26 = fsub double %25, %15
  %27 = fsub double %26, %12
  %28 = fmul double %27, 5.000000e-01
  %29 = fadd double %19, %22
  %30 = fsub double %29, %16
  %31 = fsub double %30, %13
  %32 = fmul double %31, 5.000000e-01
  %33 = fadd double %20, %23
  %34 = fsub double %33, %17
  %35 = fsub double %34, %14
  %36 = fmul double %35, 5.000000e-01
  %37 = fadd double %15, %18
  %38 = fsub double %37, %21
  %39 = fsub double %38, %12
  %40 = fmul double %39, 5.000000e-01
  %41 = fadd double %16, %19
  %42 = fsub double %41, %22
  %43 = fsub double %42, %13
  %44 = fmul double %43, 5.000000e-01
  %45 = fadd double %17, %20
  %46 = fsub double %45, %23
  %47 = fsub double %46, %14
  %48 = fmul double %47, 5.000000e-01
  %49 = fmul double %32, %48
  %50 = fmul double %44, %36
  %51 = fsub double %49, %50
  %52 = fmul double %51, 2.500000e-01
  %53 = fmul double %40, %36
  %54 = fmul double %28, %48
  %55 = fsub double %53, %54
  %56 = fmul double %55, 2.500000e-01
  %57 = fmul double %28, %44
  %58 = fmul double %40, %32
  %59 = fsub double %57, %58
  %60 = fmul double %59, 2.500000e-01
  %61 = load double, double* %0, align 8, !tbaa !10
  %62 = fadd double %52, %61
  store double %62, double* %0, align 8, !tbaa !10
  %63 = load double, double* %3, align 8, !tbaa !10
  %64 = fadd double %52, %63
  store double %64, double* %3, align 8, !tbaa !10
  %65 = load double, double* %6, align 8, !tbaa !10
  %66 = fadd double %52, %65
  store double %66, double* %6, align 8, !tbaa !10
  %67 = load double, double* %9, align 8, !tbaa !10
  %68 = fadd double %52, %67
  store double %68, double* %9, align 8, !tbaa !10
  %69 = load double, double* %1, align 8, !tbaa !10
  %70 = fadd double %56, %69
  store double %70, double* %1, align 8, !tbaa !10
  %71 = load double, double* %4, align 8, !tbaa !10
  %72 = fadd double %56, %71
  store double %72, double* %4, align 8, !tbaa !10
  %73 = load double, double* %7, align 8, !tbaa !10
  %74 = fadd double %56, %73
  store double %74, double* %7, align 8, !tbaa !10
  %75 = load double, double* %10, align 8, !tbaa !10
  %76 = fadd double %56, %75
  store double %76, double* %10, align 8, !tbaa !10
  %77 = load double, double* %2, align 8, !tbaa !10
  %78 = fadd double %60, %77
  store double %78, double* %2, align 8, !tbaa !10
  %79 = load double, double* %5, align 8, !tbaa !10
  %80 = fadd double %60, %79
  store double %80, double* %5, align 8, !tbaa !10
  %81 = load double, double* %8, align 8, !tbaa !10
  %82 = fadd double %60, %81
  store double %82, double* %8, align 8, !tbaa !10
  %83 = load double, double* %11, align 8, !tbaa !10
  %84 = fadd double %60, %83
  store double %84, double* %11, align 8, !tbaa !10
  ret void
}

; Function Attrs: mustprogress nofree noinline norecurse nosync nounwind uwtable
define dso_local void @_Z19CalcElemNodeNormalsPdS_S_PKdS1_S1_(double* nocapture %0, double* nocapture %1, double* nocapture %2, double* nocapture readonly %3, double* nocapture readonly %4, double* nocapture readonly %5) local_unnamed_addr #6 {
  br label %122

7:                                                ; preds = %122
  %8 = getelementptr inbounds double, double* %0, i64 1
  %9 = getelementptr inbounds double, double* %1, i64 1
  %10 = getelementptr inbounds double, double* %2, i64 1
  %11 = getelementptr inbounds double, double* %0, i64 2
  %12 = getelementptr inbounds double, double* %1, i64 2
  %13 = getelementptr inbounds double, double* %2, i64 2
  %14 = getelementptr inbounds double, double* %0, i64 3
  %15 = getelementptr inbounds double, double* %1, i64 3
  %16 = getelementptr inbounds double, double* %2, i64 3
  %17 = load double, double* %3, align 8, !tbaa !10
  %18 = load double, double* %4, align 8, !tbaa !10
  %19 = load double, double* %5, align 8, !tbaa !10
  %20 = getelementptr inbounds double, double* %3, i64 1
  %21 = load double, double* %20, align 8, !tbaa !10
  %22 = getelementptr inbounds double, double* %4, i64 1
  %23 = load double, double* %22, align 8, !tbaa !10
  %24 = getelementptr inbounds double, double* %5, i64 1
  %25 = load double, double* %24, align 8, !tbaa !10
  %26 = getelementptr inbounds double, double* %3, i64 2
  %27 = load double, double* %26, align 8, !tbaa !10
  %28 = getelementptr inbounds double, double* %4, i64 2
  %29 = load double, double* %28, align 8, !tbaa !10
  %30 = getelementptr inbounds double, double* %5, i64 2
  %31 = load double, double* %30, align 8, !tbaa !10
  %32 = getelementptr inbounds double, double* %3, i64 3
  %33 = load double, double* %32, align 8, !tbaa !10
  %34 = getelementptr inbounds double, double* %4, i64 3
  %35 = load double, double* %34, align 8, !tbaa !10
  %36 = getelementptr inbounds double, double* %5, i64 3
  %37 = load double, double* %36, align 8, !tbaa !10
  tail call void @_Z17SumElemFaceNormalPdS_S_S_S_S_S_S_S_S_S_S_dddddddddddd(double* nonnull %0, double* nonnull %1, double* nonnull %2, double* nonnull %8, double* nonnull %9, double* nonnull %10, double* nonnull %11, double* nonnull %12, double* nonnull %13, double* nonnull %14, double* nonnull %15, double* nonnull %16, double %17, double %18, double %19, double %21, double %23, double %25, double %27, double %29, double %31, double %33, double %35, double %37)
  %38 = getelementptr inbounds double, double* %0, i64 4
  %39 = getelementptr inbounds double, double* %1, i64 4
  %40 = getelementptr inbounds double, double* %2, i64 4
  %41 = getelementptr inbounds double, double* %0, i64 5
  %42 = getelementptr inbounds double, double* %1, i64 5
  %43 = getelementptr inbounds double, double* %2, i64 5
  %44 = load double, double* %3, align 8, !tbaa !10
  %45 = load double, double* %4, align 8, !tbaa !10
  %46 = load double, double* %5, align 8, !tbaa !10
  %47 = getelementptr inbounds double, double* %3, i64 4
  %48 = load double, double* %47, align 8, !tbaa !10
  %49 = getelementptr inbounds double, double* %4, i64 4
  %50 = load double, double* %49, align 8, !tbaa !10
  %51 = getelementptr inbounds double, double* %5, i64 4
  %52 = load double, double* %51, align 8, !tbaa !10
  %53 = getelementptr inbounds double, double* %3, i64 5
  %54 = load double, double* %53, align 8, !tbaa !10
  %55 = getelementptr inbounds double, double* %4, i64 5
  %56 = load double, double* %55, align 8, !tbaa !10
  %57 = getelementptr inbounds double, double* %5, i64 5
  %58 = load double, double* %57, align 8, !tbaa !10
  %59 = load double, double* %20, align 8, !tbaa !10
  %60 = load double, double* %22, align 8, !tbaa !10
  %61 = load double, double* %24, align 8, !tbaa !10
  tail call void @_Z17SumElemFaceNormalPdS_S_S_S_S_S_S_S_S_S_S_dddddddddddd(double* nonnull %0, double* nonnull %1, double* nonnull %2, double* nonnull %38, double* nonnull %39, double* nonnull %40, double* nonnull %41, double* nonnull %42, double* nonnull %43, double* nonnull %8, double* nonnull %9, double* nonnull %10, double %44, double %45, double %46, double %48, double %50, double %52, double %54, double %56, double %58, double %59, double %60, double %61)
  %62 = getelementptr inbounds double, double* %0, i64 6
  %63 = getelementptr inbounds double, double* %1, i64 6
  %64 = getelementptr inbounds double, double* %2, i64 6
  %65 = load double, double* %20, align 8, !tbaa !10
  %66 = load double, double* %22, align 8, !tbaa !10
  %67 = load double, double* %24, align 8, !tbaa !10
  %68 = load double, double* %53, align 8, !tbaa !10
  %69 = load double, double* %55, align 8, !tbaa !10
  %70 = load double, double* %57, align 8, !tbaa !10
  %71 = getelementptr inbounds double, double* %3, i64 6
  %72 = load double, double* %71, align 8, !tbaa !10
  %73 = getelementptr inbounds double, double* %4, i64 6
  %74 = load double, double* %73, align 8, !tbaa !10
  %75 = getelementptr inbounds double, double* %5, i64 6
  %76 = load double, double* %75, align 8, !tbaa !10
  %77 = load double, double* %26, align 8, !tbaa !10
  %78 = load double, double* %28, align 8, !tbaa !10
  %79 = load double, double* %30, align 8, !tbaa !10
  tail call void @_Z17SumElemFaceNormalPdS_S_S_S_S_S_S_S_S_S_S_dddddddddddd(double* nonnull %8, double* nonnull %9, double* nonnull %10, double* nonnull %41, double* nonnull %42, double* nonnull %43, double* nonnull %62, double* nonnull %63, double* nonnull %64, double* nonnull %11, double* nonnull %12, double* nonnull %13, double %65, double %66, double %67, double %68, double %69, double %70, double %72, double %74, double %76, double %77, double %78, double %79)
  %80 = getelementptr inbounds double, double* %0, i64 7
  %81 = getelementptr inbounds double, double* %1, i64 7
  %82 = getelementptr inbounds double, double* %2, i64 7
  %83 = load double, double* %26, align 8, !tbaa !10
  %84 = load double, double* %28, align 8, !tbaa !10
  %85 = load double, double* %30, align 8, !tbaa !10
  %86 = load double, double* %71, align 8, !tbaa !10
  %87 = load double, double* %73, align 8, !tbaa !10
  %88 = load double, double* %75, align 8, !tbaa !10
  %89 = getelementptr inbounds double, double* %3, i64 7
  %90 = load double, double* %89, align 8, !tbaa !10
  %91 = getelementptr inbounds double, double* %4, i64 7
  %92 = load double, double* %91, align 8, !tbaa !10
  %93 = getelementptr inbounds double, double* %5, i64 7
  %94 = load double, double* %93, align 8, !tbaa !10
  %95 = load double, double* %32, align 8, !tbaa !10
  %96 = load double, double* %34, align 8, !tbaa !10
  %97 = load double, double* %36, align 8, !tbaa !10
  tail call void @_Z17SumElemFaceNormalPdS_S_S_S_S_S_S_S_S_S_S_dddddddddddd(double* nonnull %11, double* nonnull %12, double* nonnull %13, double* nonnull %62, double* nonnull %63, double* nonnull %64, double* nonnull %80, double* nonnull %81, double* nonnull %82, double* nonnull %14, double* nonnull %15, double* nonnull %16, double %83, double %84, double %85, double %86, double %87, double %88, double %90, double %92, double %94, double %95, double %96, double %97)
  %98 = load double, double* %32, align 8, !tbaa !10
  %99 = load double, double* %34, align 8, !tbaa !10
  %100 = load double, double* %36, align 8, !tbaa !10
  %101 = load double, double* %89, align 8, !tbaa !10
  %102 = load double, double* %91, align 8, !tbaa !10
  %103 = load double, double* %93, align 8, !tbaa !10
  %104 = load double, double* %47, align 8, !tbaa !10
  %105 = load double, double* %49, align 8, !tbaa !10
  %106 = load double, double* %51, align 8, !tbaa !10
  %107 = load double, double* %3, align 8, !tbaa !10
  %108 = load double, double* %4, align 8, !tbaa !10
  %109 = load double, double* %5, align 8, !tbaa !10
  tail call void @_Z17SumElemFaceNormalPdS_S_S_S_S_S_S_S_S_S_S_dddddddddddd(double* nonnull %14, double* nonnull %15, double* nonnull %16, double* nonnull %80, double* nonnull %81, double* nonnull %82, double* nonnull %38, double* nonnull %39, double* nonnull %40, double* nonnull %0, double* nonnull %1, double* nonnull %2, double %98, double %99, double %100, double %101, double %102, double %103, double %104, double %105, double %106, double %107, double %108, double %109)
  %110 = load double, double* %47, align 8, !tbaa !10
  %111 = load double, double* %49, align 8, !tbaa !10
  %112 = load double, double* %51, align 8, !tbaa !10
  %113 = load double, double* %89, align 8, !tbaa !10
  %114 = load double, double* %91, align 8, !tbaa !10
  %115 = load double, double* %93, align 8, !tbaa !10
  %116 = load double, double* %71, align 8, !tbaa !10
  %117 = load double, double* %73, align 8, !tbaa !10
  %118 = load double, double* %75, align 8, !tbaa !10
  %119 = load double, double* %53, align 8, !tbaa !10
  %120 = load double, double* %55, align 8, !tbaa !10
  %121 = load double, double* %57, align 8, !tbaa !10
  tail call void @_Z17SumElemFaceNormalPdS_S_S_S_S_S_S_S_S_S_S_dddddddddddd(double* nonnull %38, double* nonnull %39, double* nonnull %40, double* nonnull %80, double* nonnull %81, double* nonnull %82, double* nonnull %62, double* nonnull %63, double* nonnull %64, double* nonnull %41, double* nonnull %42, double* nonnull %43, double %110, double %111, double %112, double %113, double %114, double %115, double %116, double %117, double %118, double %119, double %120, double %121)
  ret void

122:                                              ; preds = %122, %6
  %123 = phi i64 [ 0, %6 ], [ %127, %122 ]
  %124 = getelementptr inbounds double, double* %0, i64 %123
  store double 0.000000e+00, double* %124, align 8, !tbaa !10
  %125 = getelementptr inbounds double, double* %1, i64 %123
  store double 0.000000e+00, double* %125, align 8, !tbaa !10
  %126 = getelementptr inbounds double, double* %2, i64 %123
  store double 0.000000e+00, double* %126, align 8, !tbaa !10
  %127 = add nuw nsw i64 %123, 1
  %128 = icmp eq i64 %127, 8
  br i1 %128, label %7, label %122, !llvm.loop !17
}

; Function Attrs: mustprogress nofree noinline norecurse nosync nounwind uwtable willreturn
define dso_local void @_Z27SumElemStressesToNodeForcesPA8_KddddPdS2_S2_([8 x double]* nocapture readonly %0, double %1, double %2, double %3, double* nocapture %4, double* nocapture %5, double* nocapture %6) local_unnamed_addr #5 {
  %8 = bitcast [8 x double]* %0 to <2 x double>*
  %9 = load <2 x double>, <2 x double>* %8, align 8, !tbaa !10
  %10 = getelementptr inbounds [8 x double], [8 x double]* %0, i64 0, i64 2
  %11 = bitcast double* %10 to <2 x double>*
  %12 = load <2 x double>, <2 x double>* %11, align 8, !tbaa !10
  %13 = getelementptr inbounds [8 x double], [8 x double]* %0, i64 0, i64 4
  %14 = bitcast double* %13 to <2 x double>*
  %15 = load <2 x double>, <2 x double>* %14, align 8, !tbaa !10
  %16 = getelementptr inbounds [8 x double], [8 x double]* %0, i64 0, i64 6
  %17 = bitcast double* %16 to <2 x double>*
  %18 = load <2 x double>, <2 x double>* %17, align 8, !tbaa !10
  %19 = getelementptr inbounds [8 x double], [8 x double]* %0, i64 1, i64 0
  %20 = bitcast double* %19 to <2 x double>*
  %21 = load <2 x double>, <2 x double>* %20, align 8, !tbaa !10
  %22 = getelementptr inbounds [8 x double], [8 x double]* %0, i64 1, i64 2
  %23 = bitcast double* %22 to <2 x double>*
  %24 = load <2 x double>, <2 x double>* %23, align 8, !tbaa !10
  %25 = getelementptr inbounds [8 x double], [8 x double]* %0, i64 1, i64 4
  %26 = bitcast double* %25 to <2 x double>*
  %27 = load <2 x double>, <2 x double>* %26, align 8, !tbaa !10
  %28 = getelementptr inbounds [8 x double], [8 x double]* %0, i64 1, i64 6
  %29 = bitcast double* %28 to <2 x double>*
  %30 = load <2 x double>, <2 x double>* %29, align 8, !tbaa !10
  %31 = getelementptr inbounds [8 x double], [8 x double]* %0, i64 2, i64 0
  %32 = bitcast double* %31 to <2 x double>*
  %33 = load <2 x double>, <2 x double>* %32, align 8, !tbaa !10
  %34 = getelementptr inbounds [8 x double], [8 x double]* %0, i64 2, i64 2
  %35 = bitcast double* %34 to <2 x double>*
  %36 = load <2 x double>, <2 x double>* %35, align 8, !tbaa !10
  %37 = getelementptr inbounds [8 x double], [8 x double]* %0, i64 2, i64 4
  %38 = bitcast double* %37 to <2 x double>*
  %39 = load <2 x double>, <2 x double>* %38, align 8, !tbaa !10
  %40 = getelementptr inbounds [8 x double], [8 x double]* %0, i64 2, i64 6
  %41 = bitcast double* %40 to <2 x double>*
  %42 = load <2 x double>, <2 x double>* %41, align 8, !tbaa !10
  %43 = fneg <2 x double> %9
  %44 = insertelement <2 x double> poison, double %1, i32 0
  %45 = shufflevector <2 x double> %44, <2 x double> poison, <2 x i32> zeroinitializer
  %46 = fmul <2 x double> %45, %43
  %47 = bitcast double* %4 to <2 x double>*
  store <2 x double> %46, <2 x double>* %47, align 8, !tbaa !10
  %48 = getelementptr inbounds double, double* %4, i64 2
  %49 = fneg <2 x double> %12
  %50 = fmul <2 x double> %45, %49
  %51 = bitcast double* %48 to <2 x double>*
  store <2 x double> %50, <2 x double>* %51, align 8, !tbaa !10
  %52 = getelementptr inbounds double, double* %4, i64 4
  %53 = fneg <2 x double> %15
  %54 = fmul <2 x double> %45, %53
  %55 = bitcast double* %52 to <2 x double>*
  store <2 x double> %54, <2 x double>* %55, align 8, !tbaa !10
  %56 = getelementptr inbounds double, double* %4, i64 6
  %57 = fneg <2 x double> %18
  %58 = fmul <2 x double> %45, %57
  %59 = bitcast double* %56 to <2 x double>*
  store <2 x double> %58, <2 x double>* %59, align 8, !tbaa !10
  %60 = fneg <2 x double> %21
  %61 = insertelement <2 x double> poison, double %2, i32 0
  %62 = shufflevector <2 x double> %61, <2 x double> poison, <2 x i32> zeroinitializer
  %63 = fmul <2 x double> %62, %60
  %64 = bitcast double* %5 to <2 x double>*
  store <2 x double> %63, <2 x double>* %64, align 8, !tbaa !10
  %65 = getelementptr inbounds double, double* %5, i64 2
  %66 = fneg <2 x double> %24
  %67 = fmul <2 x double> %62, %66
  %68 = bitcast double* %65 to <2 x double>*
  store <2 x double> %67, <2 x double>* %68, align 8, !tbaa !10
  %69 = getelementptr inbounds double, double* %5, i64 4
  %70 = fneg <2 x double> %27
  %71 = fmul <2 x double> %62, %70
  %72 = bitcast double* %69 to <2 x double>*
  store <2 x double> %71, <2 x double>* %72, align 8, !tbaa !10
  %73 = getelementptr inbounds double, double* %5, i64 6
  %74 = fneg <2 x double> %30
  %75 = fmul <2 x double> %62, %74
  %76 = bitcast double* %73 to <2 x double>*
  store <2 x double> %75, <2 x double>* %76, align 8, !tbaa !10
  %77 = fneg <2 x double> %33
  %78 = insertelement <2 x double> poison, double %3, i32 0
  %79 = shufflevector <2 x double> %78, <2 x double> poison, <2 x i32> zeroinitializer
  %80 = fmul <2 x double> %79, %77
  %81 = bitcast double* %6 to <2 x double>*
  store <2 x double> %80, <2 x double>* %81, align 8, !tbaa !10
  %82 = getelementptr inbounds double, double* %6, i64 2
  %83 = fneg <2 x double> %36
  %84 = fmul <2 x double> %79, %83
  %85 = bitcast double* %82 to <2 x double>*
  store <2 x double> %84, <2 x double>* %85, align 8, !tbaa !10
  %86 = getelementptr inbounds double, double* %6, i64 4
  %87 = fneg <2 x double> %39
  %88 = fmul <2 x double> %79, %87
  %89 = bitcast double* %86 to <2 x double>*
  store <2 x double> %88, <2 x double>* %89, align 8, !tbaa !10
  %90 = getelementptr inbounds double, double* %6, i64 6
  %91 = fneg <2 x double> %42
  %92 = fmul <2 x double> %79, %91
  %93 = bitcast double* %90 to <2 x double>*
  store <2 x double> %92, <2 x double>* %93, align 8, !tbaa !10
  ret void
}

; Function Attrs: mustprogress nofree noinline nosync nounwind uwtable
define dso_local void @_Z23IntegrateStressForElemsiPdS_S_S_(i32 %0, double* nocapture readonly %1, double* nocapture readonly %2, double* nocapture readonly %3, double* nocapture %4) local_unnamed_addr #7 {
  %6 = alloca [3 x [8 x double]], align 16
  %7 = alloca [8 x double], align 16
  %8 = alloca [8 x double], align 16
  %9 = alloca [8 x double], align 16
  %10 = alloca [8 x double], align 16
  %11 = alloca [8 x double], align 16
  %12 = alloca [8 x double], align 16
  %13 = bitcast [3 x [8 x double]]* %6 to i8*
  call void @llvm.lifetime.start.p0i8(i64 192, i8* nonnull %13) #2
  %14 = bitcast [8 x double]* %7 to i8*
  call void @llvm.lifetime.start.p0i8(i64 64, i8* nonnull %14) #2
  %15 = bitcast [8 x double]* %8 to i8*
  call void @llvm.lifetime.start.p0i8(i64 64, i8* nonnull %15) #2
  %16 = bitcast [8 x double]* %9 to i8*
  call void @llvm.lifetime.start.p0i8(i64 64, i8* nonnull %16) #2
  %17 = bitcast [8 x double]* %10 to i8*
  call void @llvm.lifetime.start.p0i8(i64 64, i8* nonnull %17) #2
  %18 = bitcast [8 x double]* %11 to i8*
  call void @llvm.lifetime.start.p0i8(i64 64, i8* nonnull %18) #2
  %19 = bitcast [8 x double]* %12 to i8*
  call void @llvm.lifetime.start.p0i8(i64 64, i8* nonnull %19) #2
  %20 = getelementptr inbounds [8 x double], [8 x double]* %7, i64 0, i64 0
  %21 = getelementptr inbounds [8 x double], [8 x double]* %8, i64 0, i64 0
  %22 = getelementptr inbounds [8 x double], [8 x double]* %9, i64 0, i64 0
  %23 = getelementptr inbounds [3 x [8 x double]], [3 x [8 x double]]* %6, i64 0, i64 0
  %24 = getelementptr inbounds [3 x [8 x double]], [3 x [8 x double]]* %6, i64 0, i64 0, i64 0
  %25 = getelementptr inbounds [3 x [8 x double]], [3 x [8 x double]]* %6, i64 0, i64 1, i64 0
  %26 = getelementptr inbounds [3 x [8 x double]], [3 x [8 x double]]* %6, i64 0, i64 2, i64 0
  %27 = getelementptr inbounds [8 x double], [8 x double]* %10, i64 0, i64 0
  %28 = getelementptr inbounds [8 x double], [8 x double]* %11, i64 0, i64 0
  %29 = getelementptr inbounds [8 x double], [8 x double]* %12, i64 0, i64 0
  %30 = icmp sgt i32 %0, 0
  br i1 %30, label %31, label %.loopexit

31:                                               ; preds = %5
  %32 = zext i32 %0 to i64
  br label %33

.loopexit:                                        ; preds = %68, %5
  call void @llvm.lifetime.end.p0i8(i64 64, i8* nonnull %19) #2
  call void @llvm.lifetime.end.p0i8(i64 64, i8* nonnull %18) #2
  call void @llvm.lifetime.end.p0i8(i64 64, i8* nonnull %17) #2
  call void @llvm.lifetime.end.p0i8(i64 64, i8* nonnull %16) #2
  call void @llvm.lifetime.end.p0i8(i64 64, i8* nonnull %15) #2
  call void @llvm.lifetime.end.p0i8(i64 64, i8* nonnull %14) #2
  call void @llvm.lifetime.end.p0i8(i64 192, i8* nonnull %13) #2
  ret void

33:                                               ; preds = %68, %31
  %34 = phi i64 [ 0, %31 ], [ %69, %68 ]
  %35 = shl nsw i64 %34, 3
  %36 = load i32*, i32** getelementptr inbounds (%struct.Mesh, %struct.Mesh* @mesh, i64 0, i32 17, i32 0, i32 0, i32 0, i32 0), align 8, !tbaa !8
  %37 = getelementptr inbounds i32, i32* %36, i64 %35
  %38 = load double*, double** getelementptr inbounds (%struct.Mesh, %struct.Mesh* @mesh, i64 0, i32 0, i32 0, i32 0, i32 0, i32 0), align 8, !tbaa !3
  %39 = load double*, double** getelementptr inbounds (%struct.Mesh, %struct.Mesh* @mesh, i64 0, i32 1, i32 0, i32 0, i32 0, i32 0), align 8, !tbaa !3
  %40 = load double*, double** getelementptr inbounds (%struct.Mesh, %struct.Mesh* @mesh, i64 0, i32 2, i32 0, i32 0, i32 0, i32 0), align 8, !tbaa !3
  br label %52

41:                                               ; preds = %52
  %42 = getelementptr inbounds double, double* %4, i64 %34
  call void @_Z32CalcElemShapeFunctionDerivativesPKdS0_S0_PA8_dPd(double* nonnull %20, double* nonnull %21, double* nonnull %22, [8 x double]* nonnull %23, double* %42)
  call void @_Z19CalcElemNodeNormalsPdS_S_PKdS1_S1_(double* nonnull %24, double* nonnull %25, double* nonnull %26, double* nonnull %20, double* nonnull %21, double* nonnull %22)
  %43 = getelementptr inbounds double, double* %1, i64 %34
  %44 = load double, double* %43, align 8, !tbaa !10
  %45 = getelementptr inbounds double, double* %2, i64 %34
  %46 = load double, double* %45, align 8, !tbaa !10
  %47 = getelementptr inbounds double, double* %3, i64 %34
  %48 = load double, double* %47, align 8, !tbaa !10
  call void @_Z27SumElemStressesToNodeForcesPA8_KddddPdS2_S2_([8 x double]* nonnull %23, double %44, double %46, double %48, double* nonnull %27, double* nonnull %28, double* nonnull %29)
  %49 = load double*, double** getelementptr inbounds (%struct.Mesh, %struct.Mesh* @mesh, i64 0, i32 9, i32 0, i32 0, i32 0, i32 0), align 8, !tbaa !3
  %50 = load double*, double** getelementptr inbounds (%struct.Mesh, %struct.Mesh* @mesh, i64 0, i32 10, i32 0, i32 0, i32 0, i32 0), align 8, !tbaa !3
  %51 = load double*, double** getelementptr inbounds (%struct.Mesh, %struct.Mesh* @mesh, i64 0, i32 11, i32 0, i32 0, i32 0, i32 0), align 8, !tbaa !3
  br label %71

52:                                               ; preds = %52, %33
  %53 = phi i64 [ 0, %33 ], [ %66, %52 ]
  %54 = getelementptr inbounds i32, i32* %37, i64 %53
  %55 = load i32, i32* %54, align 4, !tbaa !12
  %56 = sext i32 %55 to i64
  %57 = getelementptr inbounds double, double* %38, i64 %56
  %58 = load double, double* %57, align 8, !tbaa !10
  %59 = getelementptr inbounds [8 x double], [8 x double]* %7, i64 0, i64 %53
  store double %58, double* %59, align 8, !tbaa !10
  %60 = getelementptr inbounds double, double* %39, i64 %56
  %61 = load double, double* %60, align 8, !tbaa !10
  %62 = getelementptr inbounds [8 x double], [8 x double]* %8, i64 0, i64 %53
  store double %61, double* %62, align 8, !tbaa !10
  %63 = getelementptr inbounds double, double* %40, i64 %56
  %64 = load double, double* %63, align 8, !tbaa !10
  %65 = getelementptr inbounds [8 x double], [8 x double]* %9, i64 0, i64 %53
  store double %64, double* %65, align 8, !tbaa !10
  %66 = add nuw nsw i64 %53, 1
  %67 = icmp eq i64 %66, 8
  br i1 %67, label %41, label %52, !llvm.loop !18

68:                                               ; preds = %71
  %69 = add nuw nsw i64 %34, 1
  %70 = icmp eq i64 %69, %32
  br i1 %70, label %.loopexit, label %33, !llvm.loop !19

71:                                               ; preds = %71, %41
  %72 = phi i64 [ 0, %41 ], [ %91, %71 ]
  %73 = getelementptr inbounds i32, i32* %37, i64 %72
  %74 = load i32, i32* %73, align 4, !tbaa !12
  %75 = getelementptr inbounds [8 x double], [8 x double]* %10, i64 0, i64 %72
  %76 = load double, double* %75, align 8, !tbaa !10
  %77 = sext i32 %74 to i64
  %78 = getelementptr inbounds double, double* %49, i64 %77
  %79 = load double, double* %78, align 8, !tbaa !10
  %80 = fadd double %76, %79
  store double %80, double* %78, align 8, !tbaa !10
  %81 = getelementptr inbounds [8 x double], [8 x double]* %11, i64 0, i64 %72
  %82 = load double, double* %81, align 8, !tbaa !10
  %83 = getelementptr inbounds double, double* %50, i64 %77
  %84 = load double, double* %83, align 8, !tbaa !10
  %85 = fadd double %82, %84
  store double %85, double* %83, align 8, !tbaa !10
  %86 = getelementptr inbounds [8 x double], [8 x double]* %12, i64 0, i64 %72
  %87 = load double, double* %86, align 8, !tbaa !10
  %88 = getelementptr inbounds double, double* %51, i64 %77
  %89 = load double, double* %88, align 8, !tbaa !10
  %90 = fadd double %87, %89
  store double %90, double* %88, align 8, !tbaa !10
  %91 = add nuw nsw i64 %72, 1
  %92 = icmp eq i64 %91, 8
  br i1 %92, label %68, label %71, !llvm.loop !20
}

; Function Attrs: argmemonly mustprogress nofree nosync nounwind willreturn
declare void @llvm.lifetime.start.p0i8(i64 immarg, i8* nocapture) #8

; Function Attrs: argmemonly mustprogress nofree nosync nounwind willreturn
declare void @llvm.lifetime.end.p0i8(i64 immarg, i8* nocapture) #8

; Function Attrs: mustprogress nofree noinline norecurse nosync nounwind uwtable willreturn
define dso_local void @_Z29CollectDomainNodesToElemNodesPKiPdS1_S1_(i32* nocapture readonly %0, double* nocapture %1, double* nocapture %2, double* nocapture %3) local_unnamed_addr #5 {
  %5 = load i32, i32* %0, align 4, !tbaa !12
  %6 = getelementptr inbounds i32, i32* %0, i64 1
  %7 = load i32, i32* %6, align 4, !tbaa !12
  %8 = getelementptr inbounds i32, i32* %0, i64 2
  %9 = load i32, i32* %8, align 4, !tbaa !12
  %10 = getelementptr inbounds i32, i32* %0, i64 3
  %11 = load i32, i32* %10, align 4, !tbaa !12
  %12 = getelementptr inbounds i32, i32* %0, i64 4
  %13 = load i32, i32* %12, align 4, !tbaa !12
  %14 = getelementptr inbounds i32, i32* %0, i64 5
  %15 = load i32, i32* %14, align 4, !tbaa !12
  %16 = getelementptr inbounds i32, i32* %0, i64 6
  %17 = load i32, i32* %16, align 4, !tbaa !12
  %18 = getelementptr inbounds i32, i32* %0, i64 7
  %19 = load i32, i32* %18, align 4, !tbaa !12
  %20 = sext i32 %5 to i64
  %21 = load double*, double** getelementptr inbounds (%struct.Mesh, %struct.Mesh* @mesh, i64 0, i32 0, i32 0, i32 0, i32 0, i32 0), align 8, !tbaa !3
  %22 = getelementptr inbounds double, double* %21, i64 %20
  %23 = load double, double* %22, align 8, !tbaa !10
  store double %23, double* %1, align 8, !tbaa !10
  %24 = sext i32 %7 to i64
  %25 = getelementptr inbounds double, double* %21, i64 %24
  %26 = load double, double* %25, align 8, !tbaa !10
  %27 = getelementptr inbounds double, double* %1, i64 1
  store double %26, double* %27, align 8, !tbaa !10
  %28 = sext i32 %9 to i64
  %29 = getelementptr inbounds double, double* %21, i64 %28
  %30 = load double, double* %29, align 8, !tbaa !10
  %31 = getelementptr inbounds double, double* %1, i64 2
  store double %30, double* %31, align 8, !tbaa !10
  %32 = sext i32 %11 to i64
  %33 = getelementptr inbounds double, double* %21, i64 %32
  %34 = load double, double* %33, align 8, !tbaa !10
  %35 = getelementptr inbounds double, double* %1, i64 3
  store double %34, double* %35, align 8, !tbaa !10
  %36 = sext i32 %13 to i64
  %37 = getelementptr inbounds double, double* %21, i64 %36
  %38 = load double, double* %37, align 8, !tbaa !10
  %39 = getelementptr inbounds double, double* %1, i64 4
  store double %38, double* %39, align 8, !tbaa !10
  %40 = sext i32 %15 to i64
  %41 = getelementptr inbounds double, double* %21, i64 %40
  %42 = load double, double* %41, align 8, !tbaa !10
  %43 = getelementptr inbounds double, double* %1, i64 5
  store double %42, double* %43, align 8, !tbaa !10
  %44 = sext i32 %17 to i64
  %45 = getelementptr inbounds double, double* %21, i64 %44
  %46 = load double, double* %45, align 8, !tbaa !10
  %47 = getelementptr inbounds double, double* %1, i64 6
  store double %46, double* %47, align 8, !tbaa !10
  %48 = sext i32 %19 to i64
  %49 = getelementptr inbounds double, double* %21, i64 %48
  %50 = load double, double* %49, align 8, !tbaa !10
  %51 = getelementptr inbounds double, double* %1, i64 7
  store double %50, double* %51, align 8, !tbaa !10
  %52 = load double*, double** getelementptr inbounds (%struct.Mesh, %struct.Mesh* @mesh, i64 0, i32 1, i32 0, i32 0, i32 0, i32 0), align 8, !tbaa !3
  %53 = getelementptr inbounds double, double* %52, i64 %20
  %54 = load double, double* %53, align 8, !tbaa !10
  store double %54, double* %2, align 8, !tbaa !10
  %55 = getelementptr inbounds double, double* %52, i64 %24
  %56 = load double, double* %55, align 8, !tbaa !10
  %57 = getelementptr inbounds double, double* %2, i64 1
  store double %56, double* %57, align 8, !tbaa !10
  %58 = getelementptr inbounds double, double* %52, i64 %28
  %59 = load double, double* %58, align 8, !tbaa !10
  %60 = getelementptr inbounds double, double* %2, i64 2
  store double %59, double* %60, align 8, !tbaa !10
  %61 = getelementptr inbounds double, double* %52, i64 %32
  %62 = load double, double* %61, align 8, !tbaa !10
  %63 = getelementptr inbounds double, double* %2, i64 3
  store double %62, double* %63, align 8, !tbaa !10
  %64 = getelementptr inbounds double, double* %52, i64 %36
  %65 = load double, double* %64, align 8, !tbaa !10
  %66 = getelementptr inbounds double, double* %2, i64 4
  store double %65, double* %66, align 8, !tbaa !10
  %67 = getelementptr inbounds double, double* %52, i64 %40
  %68 = load double, double* %67, align 8, !tbaa !10
  %69 = getelementptr inbounds double, double* %2, i64 5
  store double %68, double* %69, align 8, !tbaa !10
  %70 = getelementptr inbounds double, double* %52, i64 %44
  %71 = load double, double* %70, align 8, !tbaa !10
  %72 = getelementptr inbounds double, double* %2, i64 6
  store double %71, double* %72, align 8, !tbaa !10
  %73 = getelementptr inbounds double, double* %52, i64 %48
  %74 = load double, double* %73, align 8, !tbaa !10
  %75 = getelementptr inbounds double, double* %2, i64 7
  store double %74, double* %75, align 8, !tbaa !10
  %76 = load double*, double** getelementptr inbounds (%struct.Mesh, %struct.Mesh* @mesh, i64 0, i32 2, i32 0, i32 0, i32 0, i32 0), align 8, !tbaa !3
  %77 = getelementptr inbounds double, double* %76, i64 %20
  %78 = load double, double* %77, align 8, !tbaa !10
  store double %78, double* %3, align 8, !tbaa !10
  %79 = getelementptr inbounds double, double* %76, i64 %24
  %80 = load double, double* %79, align 8, !tbaa !10
  %81 = getelementptr inbounds double, double* %3, i64 1
  store double %80, double* %81, align 8, !tbaa !10
  %82 = getelementptr inbounds double, double* %76, i64 %28
  %83 = load double, double* %82, align 8, !tbaa !10
  %84 = getelementptr inbounds double, double* %3, i64 2
  store double %83, double* %84, align 8, !tbaa !10
  %85 = getelementptr inbounds double, double* %76, i64 %32
  %86 = load double, double* %85, align 8, !tbaa !10
  %87 = getelementptr inbounds double, double* %3, i64 3
  store double %86, double* %87, align 8, !tbaa !10
  %88 = getelementptr inbounds double, double* %76, i64 %36
  %89 = load double, double* %88, align 8, !tbaa !10
  %90 = getelementptr inbounds double, double* %3, i64 4
  store double %89, double* %90, align 8, !tbaa !10
  %91 = getelementptr inbounds double, double* %76, i64 %40
  %92 = load double, double* %91, align 8, !tbaa !10
  %93 = getelementptr inbounds double, double* %3, i64 5
  store double %92, double* %93, align 8, !tbaa !10
  %94 = getelementptr inbounds double, double* %76, i64 %44
  %95 = load double, double* %94, align 8, !tbaa !10
  %96 = getelementptr inbounds double, double* %3, i64 6
  store double %95, double* %96, align 8, !tbaa !10
  %97 = getelementptr inbounds double, double* %76, i64 %48
  %98 = load double, double* %97, align 8, !tbaa !10
  %99 = getelementptr inbounds double, double* %3, i64 7
  store double %98, double* %99, align 8, !tbaa !10
  ret void
}

; Function Attrs: mustprogress nofree noinline norecurse nosync nounwind uwtable willreturn
define dso_local void @_Z7VoluDerddddddddddddddddddPdS_S_(double %0, double %1, double %2, double %3, double %4, double %5, double %6, double %7, double %8, double %9, double %10, double %11, double %12, double %13, double %14, double %15, double %16, double %17, double* nocapture %18, double* nocapture %19, double* nocapture %20) local_unnamed_addr #5 {
  %22 = fadd double %7, %8
  %23 = fadd double %12, %13
  %24 = fmul double %22, %23
  %25 = fadd double %6, %7
  %26 = fadd double %13, %14
  %27 = fmul double %25, %26
  %28 = fsub double %24, %27
  %29 = fadd double %6, %10
  %30 = fadd double %15, %16
  %31 = fmul double %29, %30
  %32 = fadd double %28, %31
  %33 = fadd double %9, %10
  %34 = fadd double %12, %16
  %35 = fmul double %33, %34
  %36 = fsub double %32, %35
  %37 = fadd double %8, %11
  %38 = fadd double %15, %17
  %39 = fmul double %37, %38
  %40 = fsub double %36, %39
  %41 = fadd double %9, %11
  %42 = fadd double %14, %17
  %43 = fmul double %41, %42
  %44 = fadd double %43, %40
  store double %44, double* %18, align 8, !tbaa !10
  %45 = fadd double %1, %2
  %46 = fadd double %0, %1
  %47 = fmul double %46, %26
  %48 = fmul double %45, %23
  %49 = fsub double %47, %48
  %50 = fadd double %0, %4
  %51 = fmul double %50, %30
  %52 = fsub double %49, %51
  %53 = fadd double %3, %4
  %54 = fmul double %53, %34
  %55 = fadd double %54, %52
  %56 = fadd double %2, %5
  %57 = fmul double %56, %38
  %58 = fadd double %57, %55
  %59 = fadd double %3, %5
  %60 = fmul double %59, %42
  %61 = fsub double %58, %60
  store double %61, double* %19, align 8, !tbaa !10
  %62 = fmul double %45, %25
  %63 = fmul double %46, %22
  %64 = fsub double %62, %63
  %65 = fmul double %53, %29
  %66 = fsub double %64, %65
  %67 = fmul double %50, %33
  %68 = fadd double %67, %66
  %69 = fmul double %59, %37
  %70 = fadd double %69, %68
  %71 = fmul double %56, %41
  %72 = fsub double %70, %71
  store double %72, double* %20, align 8, !tbaa !10
  %73 = load double, double* %18, align 8, !tbaa !10
  %74 = fmul double %73, 0x3FB5555555555555
  store double %74, double* %18, align 8, !tbaa !10
  %75 = load double, double* %19, align 8, !tbaa !10
  %76 = fmul double %75, 0x3FB5555555555555
  store double %76, double* %19, align 8, !tbaa !10
  %77 = load double, double* %20, align 8, !tbaa !10
  %78 = fmul double %77, 0x3FB5555555555555
  store double %78, double* %20, align 8, !tbaa !10
  ret void
}

; Function Attrs: mustprogress nofree noinline norecurse nosync nounwind uwtable willreturn
define dso_local void @_Z24CalcElemVolumeDerivativePdS_S_PKdS1_S1_(double* nocapture %0, double* nocapture %1, double* nocapture %2, double* nocapture readonly %3, double* nocapture readonly %4, double* nocapture readonly %5) local_unnamed_addr #5 {
  %7 = getelementptr inbounds double, double* %3, i64 1
  %8 = load double, double* %7, align 8, !tbaa !10
  %9 = getelementptr inbounds double, double* %3, i64 2
  %10 = load double, double* %9, align 8, !tbaa !10
  %11 = getelementptr inbounds double, double* %3, i64 3
  %12 = load double, double* %11, align 8, !tbaa !10
  %13 = getelementptr inbounds double, double* %3, i64 4
  %14 = load double, double* %13, align 8, !tbaa !10
  %15 = getelementptr inbounds double, double* %3, i64 5
  %16 = load double, double* %15, align 8, !tbaa !10
  %17 = getelementptr inbounds double, double* %3, i64 7
  %18 = load double, double* %17, align 8, !tbaa !10
  %19 = getelementptr inbounds double, double* %4, i64 1
  %20 = load double, double* %19, align 8, !tbaa !10
  %21 = getelementptr inbounds double, double* %4, i64 2
  %22 = load double, double* %21, align 8, !tbaa !10
  %23 = getelementptr inbounds double, double* %4, i64 3
  %24 = load double, double* %23, align 8, !tbaa !10
  %25 = getelementptr inbounds double, double* %4, i64 4
  %26 = load double, double* %25, align 8, !tbaa !10
  %27 = getelementptr inbounds double, double* %4, i64 5
  %28 = load double, double* %27, align 8, !tbaa !10
  %29 = getelementptr inbounds double, double* %4, i64 7
  %30 = load double, double* %29, align 8, !tbaa !10
  %31 = getelementptr inbounds double, double* %5, i64 1
  %32 = load double, double* %31, align 8, !tbaa !10
  %33 = getelementptr inbounds double, double* %5, i64 2
  %34 = load double, double* %33, align 8, !tbaa !10
  %35 = getelementptr inbounds double, double* %5, i64 3
  %36 = load double, double* %35, align 8, !tbaa !10
  %37 = getelementptr inbounds double, double* %5, i64 4
  %38 = load double, double* %37, align 8, !tbaa !10
  %39 = getelementptr inbounds double, double* %5, i64 5
  %40 = load double, double* %39, align 8, !tbaa !10
  %41 = getelementptr inbounds double, double* %5, i64 7
  %42 = load double, double* %41, align 8, !tbaa !10
  tail call void @_Z7VoluDerddddddddddddddddddPdS_S_(double %8, double %10, double %12, double %14, double %16, double %18, double %20, double %22, double %24, double %26, double %28, double %30, double %32, double %34, double %36, double %38, double %40, double %42, double* %0, double* %1, double* %2)
  %43 = load double, double* %3, align 8, !tbaa !10
  %44 = load double, double* %7, align 8, !tbaa !10
  %45 = load double, double* %9, align 8, !tbaa !10
  %46 = load double, double* %17, align 8, !tbaa !10
  %47 = load double, double* %13, align 8, !tbaa !10
  %48 = getelementptr inbounds double, double* %3, i64 6
  %49 = load double, double* %48, align 8, !tbaa !10
  %50 = load double, double* %4, align 8, !tbaa !10
  %51 = load double, double* %19, align 8, !tbaa !10
  %52 = load double, double* %21, align 8, !tbaa !10
  %53 = load double, double* %29, align 8, !tbaa !10
  %54 = load double, double* %25, align 8, !tbaa !10
  %55 = getelementptr inbounds double, double* %4, i64 6
  %56 = load double, double* %55, align 8, !tbaa !10
  %57 = load double, double* %5, align 8, !tbaa !10
  %58 = load double, double* %31, align 8, !tbaa !10
  %59 = load double, double* %33, align 8, !tbaa !10
  %60 = load double, double* %41, align 8, !tbaa !10
  %61 = load double, double* %37, align 8, !tbaa !10
  %62 = getelementptr inbounds double, double* %5, i64 6
  %63 = load double, double* %62, align 8, !tbaa !10
  %64 = getelementptr inbounds double, double* %0, i64 3
  %65 = getelementptr inbounds double, double* %1, i64 3
  %66 = getelementptr inbounds double, double* %2, i64 3
  tail call void @_Z7VoluDerddddddddddddddddddPdS_S_(double %43, double %44, double %45, double %46, double %47, double %49, double %50, double %51, double %52, double %53, double %54, double %56, double %57, double %58, double %59, double %60, double %61, double %63, double* nonnull %64, double* nonnull %65, double* nonnull %66)
  %67 = load double, double* %11, align 8, !tbaa !10
  %68 = load double, double* %3, align 8, !tbaa !10
  %69 = load double, double* %7, align 8, !tbaa !10
  %70 = load double, double* %48, align 8, !tbaa !10
  %71 = load double, double* %17, align 8, !tbaa !10
  %72 = load double, double* %15, align 8, !tbaa !10
  %73 = load double, double* %23, align 8, !tbaa !10
  %74 = load double, double* %4, align 8, !tbaa !10
  %75 = load double, double* %19, align 8, !tbaa !10
  %76 = load double, double* %55, align 8, !tbaa !10
  %77 = load double, double* %29, align 8, !tbaa !10
  %78 = load double, double* %27, align 8, !tbaa !10
  %79 = load double, double* %35, align 8, !tbaa !10
  %80 = load double, double* %5, align 8, !tbaa !10
  %81 = load double, double* %31, align 8, !tbaa !10
  %82 = load double, double* %62, align 8, !tbaa !10
  %83 = load double, double* %41, align 8, !tbaa !10
  %84 = load double, double* %39, align 8, !tbaa !10
  %85 = getelementptr inbounds double, double* %0, i64 2
  %86 = getelementptr inbounds double, double* %1, i64 2
  %87 = getelementptr inbounds double, double* %2, i64 2
  tail call void @_Z7VoluDerddddddddddddddddddPdS_S_(double %67, double %68, double %69, double %70, double %71, double %72, double %73, double %74, double %75, double %76, double %77, double %78, double %79, double %80, double %81, double %82, double %83, double %84, double* nonnull %85, double* nonnull %86, double* nonnull %87)
  %88 = load double, double* %9, align 8, !tbaa !10
  %89 = load double, double* %11, align 8, !tbaa !10
  %90 = load double, double* %3, align 8, !tbaa !10
  %91 = load double, double* %15, align 8, !tbaa !10
  %92 = load double, double* %48, align 8, !tbaa !10
  %93 = load double, double* %13, align 8, !tbaa !10
  %94 = load double, double* %21, align 8, !tbaa !10
  %95 = load double, double* %23, align 8, !tbaa !10
  %96 = load double, double* %4, align 8, !tbaa !10
  %97 = load double, double* %27, align 8, !tbaa !10
  %98 = load double, double* %55, align 8, !tbaa !10
  %99 = load double, double* %25, align 8, !tbaa !10
  %100 = load double, double* %33, align 8, !tbaa !10
  %101 = load double, double* %35, align 8, !tbaa !10
  %102 = load double, double* %5, align 8, !tbaa !10
  %103 = load double, double* %39, align 8, !tbaa !10
  %104 = load double, double* %62, align 8, !tbaa !10
  %105 = load double, double* %37, align 8, !tbaa !10
  %106 = getelementptr inbounds double, double* %0, i64 1
  %107 = getelementptr inbounds double, double* %1, i64 1
  %108 = getelementptr inbounds double, double* %2, i64 1
  tail call void @_Z7VoluDerddddddddddddddddddPdS_S_(double %88, double %89, double %90, double %91, double %92, double %93, double %94, double %95, double %96, double %97, double %98, double %99, double %100, double %101, double %102, double %103, double %104, double %105, double* nonnull %106, double* nonnull %107, double* nonnull %108)
  %109 = load double, double* %17, align 8, !tbaa !10
  %110 = load double, double* %48, align 8, !tbaa !10
  %111 = load double, double* %15, align 8, !tbaa !10
  %112 = load double, double* %3, align 8, !tbaa !10
  %113 = load double, double* %11, align 8, !tbaa !10
  %114 = load double, double* %7, align 8, !tbaa !10
  %115 = load double, double* %29, align 8, !tbaa !10
  %116 = load double, double* %55, align 8, !tbaa !10
  %117 = load double, double* %27, align 8, !tbaa !10
  %118 = load double, double* %4, align 8, !tbaa !10
  %119 = load double, double* %23, align 8, !tbaa !10
  %120 = load double, double* %19, align 8, !tbaa !10
  %121 = load double, double* %41, align 8, !tbaa !10
  %122 = load double, double* %62, align 8, !tbaa !10
  %123 = load double, double* %39, align 8, !tbaa !10
  %124 = load double, double* %5, align 8, !tbaa !10
  %125 = load double, double* %35, align 8, !tbaa !10
  %126 = load double, double* %31, align 8, !tbaa !10
  %127 = getelementptr inbounds double, double* %0, i64 4
  %128 = getelementptr inbounds double, double* %1, i64 4
  %129 = getelementptr inbounds double, double* %2, i64 4
  tail call void @_Z7VoluDerddddddddddddddddddPdS_S_(double %109, double %110, double %111, double %112, double %113, double %114, double %115, double %116, double %117, double %118, double %119, double %120, double %121, double %122, double %123, double %124, double %125, double %126, double* nonnull %127, double* nonnull %128, double* nonnull %129)
  %130 = load double, double* %13, align 8, !tbaa !10
  %131 = load double, double* %17, align 8, !tbaa !10
  %132 = load double, double* %48, align 8, !tbaa !10
  %133 = load double, double* %7, align 8, !tbaa !10
  %134 = load double, double* %3, align 8, !tbaa !10
  %135 = load double, double* %9, align 8, !tbaa !10
  %136 = load double, double* %25, align 8, !tbaa !10
  %137 = load double, double* %29, align 8, !tbaa !10
  %138 = load double, double* %55, align 8, !tbaa !10
  %139 = load double, double* %19, align 8, !tbaa !10
  %140 = load double, double* %4, align 8, !tbaa !10
  %141 = load double, double* %21, align 8, !tbaa !10
  %142 = load double, double* %37, align 8, !tbaa !10
  %143 = load double, double* %41, align 8, !tbaa !10
  %144 = load double, double* %62, align 8, !tbaa !10
  %145 = load double, double* %31, align 8, !tbaa !10
  %146 = load double, double* %5, align 8, !tbaa !10
  %147 = load double, double* %33, align 8, !tbaa !10
  %148 = getelementptr inbounds double, double* %0, i64 5
  %149 = getelementptr inbounds double, double* %1, i64 5
  %150 = getelementptr inbounds double, double* %2, i64 5
  tail call void @_Z7VoluDerddddddddddddddddddPdS_S_(double %130, double %131, double %132, double %133, double %134, double %135, double %136, double %137, double %138, double %139, double %140, double %141, double %142, double %143, double %144, double %145, double %146, double %147, double* nonnull %148, double* nonnull %149, double* nonnull %150)
  %151 = load double, double* %15, align 8, !tbaa !10
  %152 = load double, double* %13, align 8, !tbaa !10
  %153 = load double, double* %17, align 8, !tbaa !10
  %154 = load double, double* %9, align 8, !tbaa !10
  %155 = load double, double* %7, align 8, !tbaa !10
  %156 = load double, double* %11, align 8, !tbaa !10
  %157 = load double, double* %27, align 8, !tbaa !10
  %158 = load double, double* %25, align 8, !tbaa !10
  %159 = load double, double* %29, align 8, !tbaa !10
  %160 = load double, double* %21, align 8, !tbaa !10
  %161 = load double, double* %19, align 8, !tbaa !10
  %162 = load double, double* %23, align 8, !tbaa !10
  %163 = load double, double* %39, align 8, !tbaa !10
  %164 = load double, double* %37, align 8, !tbaa !10
  %165 = load double, double* %41, align 8, !tbaa !10
  %166 = load double, double* %33, align 8, !tbaa !10
  %167 = load double, double* %31, align 8, !tbaa !10
  %168 = load double, double* %35, align 8, !tbaa !10
  %169 = getelementptr inbounds double, double* %0, i64 6
  %170 = getelementptr inbounds double, double* %1, i64 6
  %171 = getelementptr inbounds double, double* %2, i64 6
  tail call void @_Z7VoluDerddddddddddddddddddPdS_S_(double %151, double %152, double %153, double %154, double %155, double %156, double %157, double %158, double %159, double %160, double %161, double %162, double %163, double %164, double %165, double %166, double %167, double %168, double* nonnull %169, double* nonnull %170, double* nonnull %171)
  %172 = load double, double* %48, align 8, !tbaa !10
  %173 = load double, double* %15, align 8, !tbaa !10
  %174 = load double, double* %13, align 8, !tbaa !10
  %175 = load double, double* %11, align 8, !tbaa !10
  %176 = load double, double* %9, align 8, !tbaa !10
  %177 = load double, double* %3, align 8, !tbaa !10
  %178 = load double, double* %55, align 8, !tbaa !10
  %179 = load double, double* %27, align 8, !tbaa !10
  %180 = load double, double* %25, align 8, !tbaa !10
  %181 = load double, double* %23, align 8, !tbaa !10
  %182 = load double, double* %21, align 8, !tbaa !10
  %183 = load double, double* %4, align 8, !tbaa !10
  %184 = load double, double* %62, align 8, !tbaa !10
  %185 = load double, double* %39, align 8, !tbaa !10
  %186 = load double, double* %37, align 8, !tbaa !10
  %187 = load double, double* %35, align 8, !tbaa !10
  %188 = load double, double* %33, align 8, !tbaa !10
  %189 = load double, double* %5, align 8, !tbaa !10
  %190 = getelementptr inbounds double, double* %0, i64 7
  %191 = getelementptr inbounds double, double* %1, i64 7
  %192 = getelementptr inbounds double, double* %2, i64 7
  tail call void @_Z7VoluDerddddddddddddddddddPdS_S_(double %172, double %173, double %174, double %175, double %176, double %177, double %178, double %179, double %180, double %181, double %182, double %183, double %184, double %185, double %186, double %187, double %188, double %189, double* nonnull %190, double* nonnull %191, double* nonnull %192)
  ret void
}

; Function Attrs: mustprogress nofree noinline norecurse nosync nounwind uwtable willreturn
define dso_local void @_Z24CalcElemFBHourglassForcePdS_S_S_S_S_S_S_S_S_S_dS_S_S_(double* nocapture readonly %0, double* nocapture readonly %1, double* nocapture readonly %2, double* nocapture readonly %3, double* nocapture readonly %4, double* nocapture readonly %5, double* nocapture readonly %6, double* nocapture readonly %7, double* nocapture readonly %8, double* nocapture readonly %9, double* nocapture readonly %10, double %11, double* nocapture %12, double* nocapture %13, double* nocapture %14) local_unnamed_addr #5 {
  %16 = load double, double* %3, align 8, !tbaa !10
  %17 = load double, double* %0, align 8, !tbaa !10
  %18 = fmul double %16, %17
  %19 = load double, double* %4, align 8, !tbaa !10
  %20 = getelementptr inbounds double, double* %0, i64 1
  %21 = load double, double* %20, align 8, !tbaa !10
  %22 = fmul double %19, %21
  %23 = fadd double %18, %22
  %24 = load double, double* %5, align 8, !tbaa !10
  %25 = getelementptr inbounds double, double* %0, i64 2
  %26 = load double, double* %25, align 8, !tbaa !10
  %27 = fmul double %24, %26
  %28 = fadd double %23, %27
  %29 = load double, double* %6, align 8, !tbaa !10
  %30 = getelementptr inbounds double, double* %0, i64 3
  %31 = load double, double* %30, align 8, !tbaa !10
  %32 = fmul double %29, %31
  %33 = fadd double %28, %32
  %34 = load double, double* %7, align 8, !tbaa !10
  %35 = getelementptr inbounds double, double* %0, i64 4
  %36 = load double, double* %35, align 8, !tbaa !10
  %37 = fmul double %34, %36
  %38 = fadd double %33, %37
  %39 = load double, double* %8, align 8, !tbaa !10
  %40 = getelementptr inbounds double, double* %0, i64 5
  %41 = load double, double* %40, align 8, !tbaa !10
  %42 = fmul double %39, %41
  %43 = fadd double %38, %42
  %44 = load double, double* %9, align 8, !tbaa !10
  %45 = getelementptr inbounds double, double* %0, i64 6
  %46 = load double, double* %45, align 8, !tbaa !10
  %47 = fmul double %44, %46
  %48 = fadd double %43, %47
  %49 = load double, double* %10, align 8, !tbaa !10
  %50 = getelementptr inbounds double, double* %0, i64 7
  %51 = load double, double* %50, align 8, !tbaa !10
  %52 = fmul double %49, %51
  %53 = fadd double %48, %52
  %54 = getelementptr inbounds double, double* %3, i64 1
  %55 = load double, double* %54, align 8, !tbaa !10
  %56 = fmul double %17, %55
  %57 = getelementptr inbounds double, double* %4, i64 1
  %58 = load double, double* %57, align 8, !tbaa !10
  %59 = fmul double %21, %58
  %60 = fadd double %56, %59
  %61 = getelementptr inbounds double, double* %5, i64 1
  %62 = load double, double* %61, align 8, !tbaa !10
  %63 = fmul double %26, %62
  %64 = fadd double %60, %63
  %65 = getelementptr inbounds double, double* %6, i64 1
  %66 = load double, double* %65, align 8, !tbaa !10
  %67 = fmul double %31, %66
  %68 = fadd double %64, %67
  %69 = getelementptr inbounds double, double* %7, i64 1
  %70 = load double, double* %69, align 8, !tbaa !10
  %71 = fmul double %36, %70
  %72 = fadd double %68, %71
  %73 = getelementptr inbounds double, double* %8, i64 1
  %74 = load double, double* %73, align 8, !tbaa !10
  %75 = fmul double %41, %74
  %76 = fadd double %72, %75
  %77 = getelementptr inbounds double, double* %9, i64 1
  %78 = load double, double* %77, align 8, !tbaa !10
  %79 = fmul double %46, %78
  %80 = fadd double %76, %79
  %81 = getelementptr inbounds double, double* %10, i64 1
  %82 = load double, double* %81, align 8, !tbaa !10
  %83 = fmul double %51, %82
  %84 = fadd double %80, %83
  %85 = getelementptr inbounds double, double* %3, i64 2
  %86 = load double, double* %85, align 8, !tbaa !10
  %87 = fmul double %17, %86
  %88 = getelementptr inbounds double, double* %4, i64 2
  %89 = load double, double* %88, align 8, !tbaa !10
  %90 = fmul double %21, %89
  %91 = fadd double %87, %90
  %92 = getelementptr inbounds double, double* %5, i64 2
  %93 = load double, double* %92, align 8, !tbaa !10
  %94 = fmul double %26, %93
  %95 = fadd double %91, %94
  %96 = getelementptr inbounds double, double* %6, i64 2
  %97 = load double, double* %96, align 8, !tbaa !10
  %98 = fmul double %31, %97
  %99 = fadd double %95, %98
  %100 = getelementptr inbounds double, double* %7, i64 2
  %101 = load double, double* %100, align 8, !tbaa !10
  %102 = fmul double %36, %101
  %103 = fadd double %99, %102
  %104 = getelementptr inbounds double, double* %8, i64 2
  %105 = load double, double* %104, align 8, !tbaa !10
  %106 = fmul double %41, %105
  %107 = fadd double %103, %106
  %108 = getelementptr inbounds double, double* %9, i64 2
  %109 = load double, double* %108, align 8, !tbaa !10
  %110 = fmul double %46, %109
  %111 = fadd double %107, %110
  %112 = getelementptr inbounds double, double* %10, i64 2
  %113 = load double, double* %112, align 8, !tbaa !10
  %114 = fmul double %51, %113
  %115 = fadd double %111, %114
  %116 = getelementptr inbounds double, double* %3, i64 3
  %117 = load double, double* %116, align 8, !tbaa !10
  %118 = fmul double %17, %117
  %119 = getelementptr inbounds double, double* %4, i64 3
  %120 = load double, double* %119, align 8, !tbaa !10
  %121 = fmul double %21, %120
  %122 = fadd double %118, %121
  %123 = getelementptr inbounds double, double* %5, i64 3
  %124 = load double, double* %123, align 8, !tbaa !10
  %125 = fmul double %26, %124
  %126 = fadd double %122, %125
  %127 = getelementptr inbounds double, double* %6, i64 3
  %128 = load double, double* %127, align 8, !tbaa !10
  %129 = fmul double %31, %128
  %130 = fadd double %126, %129
  %131 = getelementptr inbounds double, double* %7, i64 3
  %132 = load double, double* %131, align 8, !tbaa !10
  %133 = fmul double %36, %132
  %134 = fadd double %130, %133
  %135 = getelementptr inbounds double, double* %8, i64 3
  %136 = load double, double* %135, align 8, !tbaa !10
  %137 = fmul double %41, %136
  %138 = fadd double %134, %137
  %139 = getelementptr inbounds double, double* %9, i64 3
  %140 = load double, double* %139, align 8, !tbaa !10
  %141 = fmul double %46, %140
  %142 = fadd double %138, %141
  %143 = getelementptr inbounds double, double* %10, i64 3
  %144 = load double, double* %143, align 8, !tbaa !10
  %145 = fmul double %51, %144
  %146 = fadd double %142, %145
  %147 = fmul double %16, %53
  %148 = fmul double %55, %84
  %149 = fadd double %147, %148
  %150 = fmul double %86, %115
  %151 = fadd double %149, %150
  %152 = fmul double %117, %146
  %153 = fadd double %151, %152
  %154 = fmul double %153, %11
  store double %154, double* %12, align 8, !tbaa !10
  %155 = load double, double* %4, align 8, !tbaa !10
  %156 = fmul double %53, %155
  %157 = load double, double* %57, align 8, !tbaa !10
  %158 = fmul double %84, %157
  %159 = fadd double %156, %158
  %160 = load double, double* %88, align 8, !tbaa !10
  %161 = fmul double %115, %160
  %162 = fadd double %159, %161
  %163 = load double, double* %119, align 8, !tbaa !10
  %164 = fmul double %146, %163
  %165 = fadd double %162, %164
  %166 = fmul double %165, %11
  %167 = getelementptr inbounds double, double* %12, i64 1
  store double %166, double* %167, align 8, !tbaa !10
  %168 = load double, double* %5, align 8, !tbaa !10
  %169 = fmul double %53, %168
  %170 = load double, double* %61, align 8, !tbaa !10
  %171 = fmul double %84, %170
  %172 = fadd double %169, %171
  %173 = load double, double* %92, align 8, !tbaa !10
  %174 = fmul double %115, %173
  %175 = fadd double %172, %174
  %176 = load double, double* %123, align 8, !tbaa !10
  %177 = fmul double %146, %176
  %178 = fadd double %175, %177
  %179 = fmul double %178, %11
  %180 = getelementptr inbounds double, double* %12, i64 2
  store double %179, double* %180, align 8, !tbaa !10
  %181 = load double, double* %6, align 8, !tbaa !10
  %182 = fmul double %53, %181
  %183 = load double, double* %65, align 8, !tbaa !10
  %184 = fmul double %84, %183
  %185 = fadd double %182, %184
  %186 = load double, double* %96, align 8, !tbaa !10
  %187 = fmul double %115, %186
  %188 = fadd double %185, %187
  %189 = load double, double* %127, align 8, !tbaa !10
  %190 = fmul double %146, %189
  %191 = fadd double %188, %190
  %192 = fmul double %191, %11
  %193 = getelementptr inbounds double, double* %12, i64 3
  store double %192, double* %193, align 8, !tbaa !10
  %194 = load double, double* %7, align 8, !tbaa !10
  %195 = fmul double %53, %194
  %196 = load double, double* %69, align 8, !tbaa !10
  %197 = fmul double %84, %196
  %198 = fadd double %195, %197
  %199 = load double, double* %100, align 8, !tbaa !10
  %200 = fmul double %115, %199
  %201 = fadd double %198, %200
  %202 = load double, double* %131, align 8, !tbaa !10
  %203 = fmul double %146, %202
  %204 = fadd double %201, %203
  %205 = fmul double %204, %11
  %206 = getelementptr inbounds double, double* %12, i64 4
  store double %205, double* %206, align 8, !tbaa !10
  %207 = load double, double* %8, align 8, !tbaa !10
  %208 = fmul double %53, %207
  %209 = load double, double* %73, align 8, !tbaa !10
  %210 = fmul double %84, %209
  %211 = fadd double %208, %210
  %212 = load double, double* %104, align 8, !tbaa !10
  %213 = fmul double %115, %212
  %214 = fadd double %211, %213
  %215 = load double, double* %135, align 8, !tbaa !10
  %216 = fmul double %146, %215
  %217 = fadd double %214, %216
  %218 = fmul double %217, %11
  %219 = getelementptr inbounds double, double* %12, i64 5
  store double %218, double* %219, align 8, !tbaa !10
  %220 = load double, double* %9, align 8, !tbaa !10
  %221 = fmul double %53, %220
  %222 = load double, double* %77, align 8, !tbaa !10
  %223 = fmul double %84, %222
  %224 = fadd double %221, %223
  %225 = load double, double* %108, align 8, !tbaa !10
  %226 = fmul double %115, %225
  %227 = fadd double %224, %226
  %228 = load double, double* %139, align 8, !tbaa !10
  %229 = fmul double %146, %228
  %230 = fadd double %227, %229
  %231 = fmul double %230, %11
  %232 = getelementptr inbounds double, double* %12, i64 6
  store double %231, double* %232, align 8, !tbaa !10
  %233 = load double, double* %10, align 8, !tbaa !10
  %234 = fmul double %53, %233
  %235 = load double, double* %81, align 8, !tbaa !10
  %236 = fmul double %84, %235
  %237 = fadd double %234, %236
  %238 = load double, double* %112, align 8, !tbaa !10
  %239 = fmul double %115, %238
  %240 = fadd double %237, %239
  %241 = load double, double* %143, align 8, !tbaa !10
  %242 = fmul double %146, %241
  %243 = fadd double %240, %242
  %244 = fmul double %243, %11
  %245 = getelementptr inbounds double, double* %12, i64 7
  store double %244, double* %245, align 8, !tbaa !10
  %246 = load double, double* %3, align 8, !tbaa !10
  %247 = load double, double* %1, align 8, !tbaa !10
  %248 = fmul double %246, %247
  %249 = load double, double* %4, align 8, !tbaa !10
  %250 = getelementptr inbounds double, double* %1, i64 1
  %251 = load double, double* %250, align 8, !tbaa !10
  %252 = fmul double %249, %251
  %253 = fadd double %248, %252
  %254 = load double, double* %5, align 8, !tbaa !10
  %255 = getelementptr inbounds double, double* %1, i64 2
  %256 = load double, double* %255, align 8, !tbaa !10
  %257 = fmul double %254, %256
  %258 = fadd double %253, %257
  %259 = load double, double* %6, align 8, !tbaa !10
  %260 = getelementptr inbounds double, double* %1, i64 3
  %261 = load double, double* %260, align 8, !tbaa !10
  %262 = fmul double %259, %261
  %263 = fadd double %258, %262
  %264 = load double, double* %7, align 8, !tbaa !10
  %265 = getelementptr inbounds double, double* %1, i64 4
  %266 = load double, double* %265, align 8, !tbaa !10
  %267 = fmul double %264, %266
  %268 = fadd double %263, %267
  %269 = load double, double* %8, align 8, !tbaa !10
  %270 = getelementptr inbounds double, double* %1, i64 5
  %271 = load double, double* %270, align 8, !tbaa !10
  %272 = fmul double %269, %271
  %273 = fadd double %268, %272
  %274 = load double, double* %9, align 8, !tbaa !10
  %275 = getelementptr inbounds double, double* %1, i64 6
  %276 = load double, double* %275, align 8, !tbaa !10
  %277 = fmul double %274, %276
  %278 = fadd double %273, %277
  %279 = load double, double* %10, align 8, !tbaa !10
  %280 = getelementptr inbounds double, double* %1, i64 7
  %281 = load double, double* %280, align 8, !tbaa !10
  %282 = fmul double %279, %281
  %283 = fadd double %278, %282
  %284 = load double, double* %54, align 8, !tbaa !10
  %285 = fmul double %247, %284
  %286 = load double, double* %57, align 8, !tbaa !10
  %287 = fmul double %251, %286
  %288 = fadd double %285, %287
  %289 = load double, double* %61, align 8, !tbaa !10
  %290 = fmul double %256, %289
  %291 = fadd double %288, %290
  %292 = load double, double* %65, align 8, !tbaa !10
  %293 = fmul double %261, %292
  %294 = fadd double %291, %293
  %295 = load double, double* %69, align 8, !tbaa !10
  %296 = fmul double %266, %295
  %297 = fadd double %294, %296
  %298 = load double, double* %73, align 8, !tbaa !10
  %299 = fmul double %271, %298
  %300 = fadd double %297, %299
  %301 = load double, double* %77, align 8, !tbaa !10
  %302 = fmul double %276, %301
  %303 = fadd double %300, %302
  %304 = load double, double* %81, align 8, !tbaa !10
  %305 = fmul double %281, %304
  %306 = fadd double %303, %305
  %307 = load double, double* %85, align 8, !tbaa !10
  %308 = fmul double %247, %307
  %309 = load double, double* %88, align 8, !tbaa !10
  %310 = fmul double %251, %309
  %311 = fadd double %308, %310
  %312 = load double, double* %92, align 8, !tbaa !10
  %313 = fmul double %256, %312
  %314 = fadd double %311, %313
  %315 = load double, double* %96, align 8, !tbaa !10
  %316 = fmul double %261, %315
  %317 = fadd double %314, %316
  %318 = load double, double* %100, align 8, !tbaa !10
  %319 = fmul double %266, %318
  %320 = fadd double %317, %319
  %321 = load double, double* %104, align 8, !tbaa !10
  %322 = fmul double %271, %321
  %323 = fadd double %320, %322
  %324 = load double, double* %108, align 8, !tbaa !10
  %325 = fmul double %276, %324
  %326 = fadd double %323, %325
  %327 = load double, double* %112, align 8, !tbaa !10
  %328 = fmul double %281, %327
  %329 = fadd double %326, %328
  %330 = load double, double* %116, align 8, !tbaa !10
  %331 = fmul double %247, %330
  %332 = load double, double* %119, align 8, !tbaa !10
  %333 = fmul double %251, %332
  %334 = fadd double %331, %333
  %335 = load double, double* %123, align 8, !tbaa !10
  %336 = fmul double %256, %335
  %337 = fadd double %334, %336
  %338 = load double, double* %127, align 8, !tbaa !10
  %339 = fmul double %261, %338
  %340 = fadd double %337, %339
  %341 = load double, double* %131, align 8, !tbaa !10
  %342 = fmul double %266, %341
  %343 = fadd double %340, %342
  %344 = load double, double* %135, align 8, !tbaa !10
  %345 = fmul double %271, %344
  %346 = fadd double %343, %345
  %347 = load double, double* %139, align 8, !tbaa !10
  %348 = fmul double %276, %347
  %349 = fadd double %346, %348
  %350 = load double, double* %143, align 8, !tbaa !10
  %351 = fmul double %281, %350
  %352 = fadd double %349, %351
  %353 = fmul double %246, %283
  %354 = fmul double %284, %306
  %355 = fadd double %353, %354
  %356 = fmul double %307, %329
  %357 = fadd double %355, %356
  %358 = fmul double %330, %352
  %359 = fadd double %357, %358
  %360 = fmul double %359, %11
  store double %360, double* %13, align 8, !tbaa !10
  %361 = load double, double* %4, align 8, !tbaa !10
  %362 = fmul double %283, %361
  %363 = load double, double* %57, align 8, !tbaa !10
  %364 = fmul double %306, %363
  %365 = fadd double %362, %364
  %366 = load double, double* %88, align 8, !tbaa !10
  %367 = fmul double %329, %366
  %368 = fadd double %365, %367
  %369 = load double, double* %119, align 8, !tbaa !10
  %370 = fmul double %352, %369
  %371 = fadd double %368, %370
  %372 = fmul double %371, %11
  %373 = getelementptr inbounds double, double* %13, i64 1
  store double %372, double* %373, align 8, !tbaa !10
  %374 = load double, double* %5, align 8, !tbaa !10
  %375 = fmul double %283, %374
  %376 = load double, double* %61, align 8, !tbaa !10
  %377 = fmul double %306, %376
  %378 = fadd double %375, %377
  %379 = load double, double* %92, align 8, !tbaa !10
  %380 = fmul double %329, %379
  %381 = fadd double %378, %380
  %382 = load double, double* %123, align 8, !tbaa !10
  %383 = fmul double %352, %382
  %384 = fadd double %381, %383
  %385 = fmul double %384, %11
  %386 = getelementptr inbounds double, double* %13, i64 2
  store double %385, double* %386, align 8, !tbaa !10
  %387 = load double, double* %6, align 8, !tbaa !10
  %388 = fmul double %283, %387
  %389 = load double, double* %65, align 8, !tbaa !10
  %390 = fmul double %306, %389
  %391 = fadd double %388, %390
  %392 = load double, double* %96, align 8, !tbaa !10
  %393 = fmul double %329, %392
  %394 = fadd double %391, %393
  %395 = load double, double* %127, align 8, !tbaa !10
  %396 = fmul double %352, %395
  %397 = fadd double %394, %396
  %398 = fmul double %397, %11
  %399 = getelementptr inbounds double, double* %13, i64 3
  store double %398, double* %399, align 8, !tbaa !10
  %400 = load double, double* %7, align 8, !tbaa !10
  %401 = fmul double %283, %400
  %402 = load double, double* %69, align 8, !tbaa !10
  %403 = fmul double %306, %402
  %404 = fadd double %401, %403
  %405 = load double, double* %100, align 8, !tbaa !10
  %406 = fmul double %329, %405
  %407 = fadd double %404, %406
  %408 = load double, double* %131, align 8, !tbaa !10
  %409 = fmul double %352, %408
  %410 = fadd double %407, %409
  %411 = fmul double %410, %11
  %412 = getelementptr inbounds double, double* %13, i64 4
  store double %411, double* %412, align 8, !tbaa !10
  %413 = load double, double* %8, align 8, !tbaa !10
  %414 = fmul double %283, %413
  %415 = load double, double* %73, align 8, !tbaa !10
  %416 = fmul double %306, %415
  %417 = fadd double %414, %416
  %418 = load double, double* %104, align 8, !tbaa !10
  %419 = fmul double %329, %418
  %420 = fadd double %417, %419
  %421 = load double, double* %135, align 8, !tbaa !10
  %422 = fmul double %352, %421
  %423 = fadd double %420, %422
  %424 = fmul double %423, %11
  %425 = getelementptr inbounds double, double* %13, i64 5
  store double %424, double* %425, align 8, !tbaa !10
  %426 = load double, double* %9, align 8, !tbaa !10
  %427 = fmul double %283, %426
  %428 = load double, double* %77, align 8, !tbaa !10
  %429 = fmul double %306, %428
  %430 = fadd double %427, %429
  %431 = load double, double* %108, align 8, !tbaa !10
  %432 = fmul double %329, %431
  %433 = fadd double %430, %432
  %434 = load double, double* %139, align 8, !tbaa !10
  %435 = fmul double %352, %434
  %436 = fadd double %433, %435
  %437 = fmul double %436, %11
  %438 = getelementptr inbounds double, double* %13, i64 6
  store double %437, double* %438, align 8, !tbaa !10
  %439 = load double, double* %10, align 8, !tbaa !10
  %440 = fmul double %283, %439
  %441 = load double, double* %81, align 8, !tbaa !10
  %442 = fmul double %306, %441
  %443 = fadd double %440, %442
  %444 = load double, double* %112, align 8, !tbaa !10
  %445 = fmul double %329, %444
  %446 = fadd double %443, %445
  %447 = load double, double* %143, align 8, !tbaa !10
  %448 = fmul double %352, %447
  %449 = fadd double %446, %448
  %450 = fmul double %449, %11
  %451 = getelementptr inbounds double, double* %13, i64 7
  store double %450, double* %451, align 8, !tbaa !10
  %452 = load double, double* %3, align 8, !tbaa !10
  %453 = load double, double* %2, align 8, !tbaa !10
  %454 = fmul double %452, %453
  %455 = load double, double* %4, align 8, !tbaa !10
  %456 = getelementptr inbounds double, double* %2, i64 1
  %457 = load double, double* %456, align 8, !tbaa !10
  %458 = fmul double %455, %457
  %459 = fadd double %454, %458
  %460 = load double, double* %5, align 8, !tbaa !10
  %461 = getelementptr inbounds double, double* %2, i64 2
  %462 = load double, double* %461, align 8, !tbaa !10
  %463 = fmul double %460, %462
  %464 = fadd double %459, %463
  %465 = load double, double* %6, align 8, !tbaa !10
  %466 = getelementptr inbounds double, double* %2, i64 3
  %467 = load double, double* %466, align 8, !tbaa !10
  %468 = fmul double %465, %467
  %469 = fadd double %464, %468
  %470 = load double, double* %7, align 8, !tbaa !10
  %471 = getelementptr inbounds double, double* %2, i64 4
  %472 = load double, double* %471, align 8, !tbaa !10
  %473 = fmul double %470, %472
  %474 = fadd double %469, %473
  %475 = load double, double* %8, align 8, !tbaa !10
  %476 = getelementptr inbounds double, double* %2, i64 5
  %477 = load double, double* %476, align 8, !tbaa !10
  %478 = fmul double %475, %477
  %479 = fadd double %474, %478
  %480 = load double, double* %9, align 8, !tbaa !10
  %481 = getelementptr inbounds double, double* %2, i64 6
  %482 = load double, double* %481, align 8, !tbaa !10
  %483 = fmul double %480, %482
  %484 = fadd double %479, %483
  %485 = load double, double* %10, align 8, !tbaa !10
  %486 = getelementptr inbounds double, double* %2, i64 7
  %487 = load double, double* %486, align 8, !tbaa !10
  %488 = fmul double %485, %487
  %489 = fadd double %484, %488
  %490 = load double, double* %54, align 8, !tbaa !10
  %491 = fmul double %453, %490
  %492 = load double, double* %57, align 8, !tbaa !10
  %493 = fmul double %457, %492
  %494 = fadd double %491, %493
  %495 = load double, double* %61, align 8, !tbaa !10
  %496 = fmul double %462, %495
  %497 = fadd double %494, %496
  %498 = load double, double* %65, align 8, !tbaa !10
  %499 = fmul double %467, %498
  %500 = fadd double %497, %499
  %501 = load double, double* %69, align 8, !tbaa !10
  %502 = fmul double %472, %501
  %503 = fadd double %500, %502
  %504 = load double, double* %73, align 8, !tbaa !10
  %505 = fmul double %477, %504
  %506 = fadd double %503, %505
  %507 = load double, double* %77, align 8, !tbaa !10
  %508 = fmul double %482, %507
  %509 = fadd double %506, %508
  %510 = load double, double* %81, align 8, !tbaa !10
  %511 = fmul double %487, %510
  %512 = fadd double %509, %511
  %513 = load double, double* %85, align 8, !tbaa !10
  %514 = fmul double %453, %513
  %515 = load double, double* %88, align 8, !tbaa !10
  %516 = fmul double %457, %515
  %517 = fadd double %514, %516
  %518 = load double, double* %92, align 8, !tbaa !10
  %519 = fmul double %462, %518
  %520 = fadd double %517, %519
  %521 = load double, double* %96, align 8, !tbaa !10
  %522 = fmul double %467, %521
  %523 = fadd double %520, %522
  %524 = load double, double* %100, align 8, !tbaa !10
  %525 = fmul double %472, %524
  %526 = fadd double %523, %525
  %527 = load double, double* %104, align 8, !tbaa !10
  %528 = fmul double %477, %527
  %529 = fadd double %526, %528
  %530 = load double, double* %108, align 8, !tbaa !10
  %531 = fmul double %482, %530
  %532 = fadd double %529, %531
  %533 = load double, double* %112, align 8, !tbaa !10
  %534 = fmul double %487, %533
  %535 = fadd double %532, %534
  %536 = load double, double* %116, align 8, !tbaa !10
  %537 = fmul double %453, %536
  %538 = load double, double* %119, align 8, !tbaa !10
  %539 = fmul double %457, %538
  %540 = fadd double %537, %539
  %541 = load double, double* %123, align 8, !tbaa !10
  %542 = fmul double %462, %541
  %543 = fadd double %540, %542
  %544 = load double, double* %127, align 8, !tbaa !10
  %545 = fmul double %467, %544
  %546 = fadd double %543, %545
  %547 = load double, double* %131, align 8, !tbaa !10
  %548 = fmul double %472, %547
  %549 = fadd double %546, %548
  %550 = load double, double* %135, align 8, !tbaa !10
  %551 = fmul double %477, %550
  %552 = fadd double %549, %551
  %553 = load double, double* %139, align 8, !tbaa !10
  %554 = fmul double %482, %553
  %555 = fadd double %552, %554
  %556 = load double, double* %143, align 8, !tbaa !10
  %557 = fmul double %487, %556
  %558 = fadd double %555, %557
  %559 = fmul double %452, %489
  %560 = fmul double %490, %512
  %561 = fadd double %559, %560
  %562 = fmul double %513, %535
  %563 = fadd double %561, %562
  %564 = fmul double %536, %558
  %565 = fadd double %563, %564
  %566 = fmul double %565, %11
  store double %566, double* %14, align 8, !tbaa !10
  %567 = load double, double* %4, align 8, !tbaa !10
  %568 = fmul double %489, %567
  %569 = load double, double* %57, align 8, !tbaa !10
  %570 = fmul double %512, %569
  %571 = fadd double %568, %570
  %572 = load double, double* %88, align 8, !tbaa !10
  %573 = fmul double %535, %572
  %574 = fadd double %571, %573
  %575 = load double, double* %119, align 8, !tbaa !10
  %576 = fmul double %558, %575
  %577 = fadd double %574, %576
  %578 = fmul double %577, %11
  %579 = getelementptr inbounds double, double* %14, i64 1
  store double %578, double* %579, align 8, !tbaa !10
  %580 = load double, double* %5, align 8, !tbaa !10
  %581 = fmul double %489, %580
  %582 = load double, double* %61, align 8, !tbaa !10
  %583 = fmul double %512, %582
  %584 = fadd double %581, %583
  %585 = load double, double* %92, align 8, !tbaa !10
  %586 = fmul double %535, %585
  %587 = fadd double %584, %586
  %588 = load double, double* %123, align 8, !tbaa !10
  %589 = fmul double %558, %588
  %590 = fadd double %587, %589
  %591 = fmul double %590, %11
  %592 = getelementptr inbounds double, double* %14, i64 2
  store double %591, double* %592, align 8, !tbaa !10
  %593 = load double, double* %6, align 8, !tbaa !10
  %594 = fmul double %489, %593
  %595 = load double, double* %65, align 8, !tbaa !10
  %596 = fmul double %512, %595
  %597 = fadd double %594, %596
  %598 = load double, double* %96, align 8, !tbaa !10
  %599 = fmul double %535, %598
  %600 = fadd double %597, %599
  %601 = load double, double* %127, align 8, !tbaa !10
  %602 = fmul double %558, %601
  %603 = fadd double %600, %602
  %604 = fmul double %603, %11
  %605 = getelementptr inbounds double, double* %14, i64 3
  store double %604, double* %605, align 8, !tbaa !10
  %606 = load double, double* %7, align 8, !tbaa !10
  %607 = fmul double %489, %606
  %608 = load double, double* %69, align 8, !tbaa !10
  %609 = fmul double %512, %608
  %610 = fadd double %607, %609
  %611 = load double, double* %100, align 8, !tbaa !10
  %612 = fmul double %535, %611
  %613 = fadd double %610, %612
  %614 = load double, double* %131, align 8, !tbaa !10
  %615 = fmul double %558, %614
  %616 = fadd double %613, %615
  %617 = fmul double %616, %11
  %618 = getelementptr inbounds double, double* %14, i64 4
  store double %617, double* %618, align 8, !tbaa !10
  %619 = load double, double* %8, align 8, !tbaa !10
  %620 = fmul double %489, %619
  %621 = load double, double* %73, align 8, !tbaa !10
  %622 = fmul double %512, %621
  %623 = fadd double %620, %622
  %624 = load double, double* %104, align 8, !tbaa !10
  %625 = fmul double %535, %624
  %626 = fadd double %623, %625
  %627 = load double, double* %135, align 8, !tbaa !10
  %628 = fmul double %558, %627
  %629 = fadd double %626, %628
  %630 = fmul double %629, %11
  %631 = getelementptr inbounds double, double* %14, i64 5
  store double %630, double* %631, align 8, !tbaa !10
  %632 = load double, double* %9, align 8, !tbaa !10
  %633 = fmul double %489, %632
  %634 = load double, double* %77, align 8, !tbaa !10
  %635 = fmul double %512, %634
  %636 = fadd double %633, %635
  %637 = load double, double* %108, align 8, !tbaa !10
  %638 = fmul double %535, %637
  %639 = fadd double %636, %638
  %640 = load double, double* %139, align 8, !tbaa !10
  %641 = fmul double %558, %640
  %642 = fadd double %639, %641
  %643 = fmul double %642, %11
  %644 = getelementptr inbounds double, double* %14, i64 6
  store double %643, double* %644, align 8, !tbaa !10
  %645 = load double, double* %10, align 8, !tbaa !10
  %646 = fmul double %489, %645
  %647 = load double, double* %81, align 8, !tbaa !10
  %648 = fmul double %512, %647
  %649 = fadd double %646, %648
  %650 = load double, double* %112, align 8, !tbaa !10
  %651 = fmul double %535, %650
  %652 = fadd double %649, %651
  %653 = load double, double* %143, align 8, !tbaa !10
  %654 = fmul double %558, %653
  %655 = fadd double %652, %654
  %656 = fmul double %655, %11
  %657 = getelementptr inbounds double, double* %14, i64 7
  store double %656, double* %657, align 8, !tbaa !10
  ret void
}

; Function Attrs: mustprogress nofree noinline nosync nounwind uwtable
define dso_local void @_Z28CalcFBHourglassForceForElemsPdS_S_S_S_S_S_d(double* nocapture readonly %0, double* nocapture readonly %1, double* nocapture readonly %2, double* nocapture readonly %3, double* nocapture readonly %4, double* nocapture readonly %5, double* nocapture readonly %6, double %7) local_unnamed_addr #7 {
  %9 = alloca [8 x double], align 16
  %10 = alloca [8 x double], align 16
  %11 = alloca [8 x double], align 16
  %12 = alloca [4 x [8 x double]], align 16
  %13 = alloca [4 x double], align 16
  %14 = alloca [4 x double], align 16
  %15 = alloca [4 x double], align 16
  %16 = alloca [4 x double], align 16
  %17 = alloca [4 x double], align 16
  %18 = alloca [4 x double], align 16
  %19 = alloca [4 x double], align 16
  %20 = alloca [4 x double], align 16
  %21 = alloca [8 x double], align 16
  %22 = alloca [8 x double], align 16
  %23 = alloca [8 x double], align 16
  %24 = load i32, i32* getelementptr inbounds (%struct.Mesh, %struct.Mesh* @mesh, i64 0, i32 79), align 8, !tbaa !12
  %25 = bitcast [8 x double]* %9 to i8*
  call void @llvm.lifetime.start.p0i8(i64 64, i8* nonnull %25) #2
  %26 = bitcast [8 x double]* %10 to i8*
  call void @llvm.lifetime.start.p0i8(i64 64, i8* nonnull %26) #2
  %27 = bitcast [8 x double]* %11 to i8*
  call void @llvm.lifetime.start.p0i8(i64 64, i8* nonnull %27) #2
  %28 = bitcast [4 x [8 x double]]* %12 to i8*
  call void @llvm.lifetime.start.p0i8(i64 256, i8* nonnull %28) #2
  %29 = bitcast [4 x double]* %13 to i8*
  call void @llvm.lifetime.start.p0i8(i64 32, i8* nonnull %29) #2
  %30 = bitcast [4 x double]* %14 to i8*
  call void @llvm.lifetime.start.p0i8(i64 32, i8* nonnull %30) #2
  %31 = bitcast [4 x double]* %15 to i8*
  call void @llvm.lifetime.start.p0i8(i64 32, i8* nonnull %31) #2
  %32 = bitcast [4 x double]* %16 to i8*
  call void @llvm.lifetime.start.p0i8(i64 32, i8* nonnull %32) #2
  %33 = bitcast [4 x double]* %17 to i8*
  call void @llvm.lifetime.start.p0i8(i64 32, i8* nonnull %33) #2
  %34 = bitcast [4 x double]* %18 to i8*
  call void @llvm.lifetime.start.p0i8(i64 32, i8* nonnull %34) #2
  %35 = bitcast [4 x double]* %19 to i8*
  call void @llvm.lifetime.start.p0i8(i64 32, i8* nonnull %35) #2
  %36 = bitcast [4 x double]* %20 to i8*
  call void @llvm.lifetime.start.p0i8(i64 32, i8* nonnull %36) #2
  %37 = bitcast [8 x double]* %21 to i8*
  call void @llvm.lifetime.start.p0i8(i64 64, i8* nonnull %37) #2
  %38 = bitcast [8 x double]* %22 to i8*
  call void @llvm.lifetime.start.p0i8(i64 64, i8* nonnull %38) #2
  %39 = bitcast [8 x double]* %23 to i8*
  call void @llvm.lifetime.start.p0i8(i64 64, i8* nonnull %39) #2
  %40 = bitcast [4 x [8 x double]]* %12 to <2 x double>*
  store <2 x double> <double 1.000000e+00, double 1.000000e+00>, <2 x double>* %40, align 16, !tbaa !10
  %41 = getelementptr inbounds [4 x [8 x double]], [4 x [8 x double]]* %12, i64 0, i64 0, i64 2
  %42 = bitcast double* %41 to <2 x double>*
  store <2 x double> <double -1.000000e+00, double -1.000000e+00>, <2 x double>* %42, align 16, !tbaa !10
  %43 = getelementptr inbounds [4 x [8 x double]], [4 x [8 x double]]* %12, i64 0, i64 0, i64 4
  %44 = bitcast double* %43 to <2 x double>*
  store <2 x double> <double -1.000000e+00, double -1.000000e+00>, <2 x double>* %44, align 16, !tbaa !10
  %45 = getelementptr inbounds [4 x [8 x double]], [4 x [8 x double]]* %12, i64 0, i64 0, i64 6
  %46 = bitcast double* %45 to <2 x double>*
  store <2 x double> <double 1.000000e+00, double 1.000000e+00>, <2 x double>* %46, align 16, !tbaa !10
  %47 = getelementptr inbounds [4 x [8 x double]], [4 x [8 x double]]* %12, i64 0, i64 1, i64 0
  %48 = bitcast double* %47 to <2 x double>*
  store <2 x double> <double 1.000000e+00, double -1.000000e+00>, <2 x double>* %48, align 16, !tbaa !10
  %49 = getelementptr inbounds [4 x [8 x double]], [4 x [8 x double]]* %12, i64 0, i64 1, i64 2
  %50 = bitcast double* %49 to <2 x double>*
  store <2 x double> <double -1.000000e+00, double 1.000000e+00>, <2 x double>* %50, align 16, !tbaa !10
  %51 = getelementptr inbounds [4 x [8 x double]], [4 x [8 x double]]* %12, i64 0, i64 1, i64 4
  %52 = bitcast double* %51 to <2 x double>*
  store <2 x double> <double -1.000000e+00, double 1.000000e+00>, <2 x double>* %52, align 16, !tbaa !10
  %53 = getelementptr inbounds [4 x [8 x double]], [4 x [8 x double]]* %12, i64 0, i64 1, i64 6
  %54 = bitcast double* %53 to <2 x double>*
  store <2 x double> <double 1.000000e+00, double -1.000000e+00>, <2 x double>* %54, align 16, !tbaa !10
  %55 = getelementptr inbounds [4 x [8 x double]], [4 x [8 x double]]* %12, i64 0, i64 2, i64 0
  %56 = bitcast double* %55 to <2 x double>*
  store <2 x double> <double 1.000000e+00, double -1.000000e+00>, <2 x double>* %56, align 16, !tbaa !10
  %57 = getelementptr inbounds [4 x [8 x double]], [4 x [8 x double]]* %12, i64 0, i64 2, i64 2
  %58 = bitcast double* %57 to <2 x double>*
  store <2 x double> <double 1.000000e+00, double -1.000000e+00>, <2 x double>* %58, align 16, !tbaa !10
  %59 = getelementptr inbounds [4 x [8 x double]], [4 x [8 x double]]* %12, i64 0, i64 2, i64 4
  %60 = bitcast double* %59 to <2 x double>*
  store <2 x double> <double 1.000000e+00, double -1.000000e+00>, <2 x double>* %60, align 16, !tbaa !10
  %61 = getelementptr inbounds [4 x [8 x double]], [4 x [8 x double]]* %12, i64 0, i64 2, i64 6
  %62 = bitcast double* %61 to <2 x double>*
  store <2 x double> <double 1.000000e+00, double -1.000000e+00>, <2 x double>* %62, align 16, !tbaa !10
  %63 = getelementptr inbounds [4 x [8 x double]], [4 x [8 x double]]* %12, i64 0, i64 3, i64 0
  %64 = bitcast double* %63 to <2 x double>*
  store <2 x double> <double -1.000000e+00, double 1.000000e+00>, <2 x double>* %64, align 16, !tbaa !10
  %65 = getelementptr inbounds [4 x [8 x double]], [4 x [8 x double]]* %12, i64 0, i64 3, i64 2
  %66 = bitcast double* %65 to <2 x double>*
  store <2 x double> <double -1.000000e+00, double 1.000000e+00>, <2 x double>* %66, align 16, !tbaa !10
  %67 = getelementptr inbounds [4 x [8 x double]], [4 x [8 x double]]* %12, i64 0, i64 3, i64 4
  %68 = bitcast double* %67 to <2 x double>*
  store <2 x double> <double 1.000000e+00, double -1.000000e+00>, <2 x double>* %68, align 16, !tbaa !10
  %69 = getelementptr inbounds [4 x [8 x double]], [4 x [8 x double]]* %12, i64 0, i64 3, i64 6
  %70 = bitcast double* %69 to <2 x double>*
  store <2 x double> <double 1.000000e+00, double -1.000000e+00>, <2 x double>* %70, align 16, !tbaa !10
  %71 = getelementptr inbounds [8 x double], [8 x double]* %21, i64 0, i64 0
  %72 = getelementptr inbounds [8 x double], [8 x double]* %21, i64 0, i64 1
  %73 = getelementptr inbounds [8 x double], [8 x double]* %21, i64 0, i64 2
  %74 = getelementptr inbounds [8 x double], [8 x double]* %21, i64 0, i64 3
  %75 = getelementptr inbounds [8 x double], [8 x double]* %21, i64 0, i64 4
  %76 = getelementptr inbounds [8 x double], [8 x double]* %21, i64 0, i64 5
  %77 = getelementptr inbounds [8 x double], [8 x double]* %21, i64 0, i64 6
  %78 = getelementptr inbounds [8 x double], [8 x double]* %21, i64 0, i64 7
  %79 = getelementptr inbounds [8 x double], [8 x double]* %22, i64 0, i64 0
  %80 = getelementptr inbounds [8 x double], [8 x double]* %22, i64 0, i64 1
  %81 = getelementptr inbounds [8 x double], [8 x double]* %22, i64 0, i64 2
  %82 = getelementptr inbounds [8 x double], [8 x double]* %22, i64 0, i64 3
  %83 = getelementptr inbounds [8 x double], [8 x double]* %22, i64 0, i64 4
  %84 = getelementptr inbounds [8 x double], [8 x double]* %22, i64 0, i64 5
  %85 = getelementptr inbounds [8 x double], [8 x double]* %22, i64 0, i64 6
  %86 = getelementptr inbounds [8 x double], [8 x double]* %22, i64 0, i64 7
  %87 = getelementptr inbounds [8 x double], [8 x double]* %23, i64 0, i64 0
  %88 = getelementptr inbounds [8 x double], [8 x double]* %23, i64 0, i64 1
  %89 = getelementptr inbounds [8 x double], [8 x double]* %23, i64 0, i64 2
  %90 = getelementptr inbounds [8 x double], [8 x double]* %23, i64 0, i64 3
  %91 = getelementptr inbounds [8 x double], [8 x double]* %23, i64 0, i64 4
  %92 = getelementptr inbounds [8 x double], [8 x double]* %23, i64 0, i64 5
  %93 = getelementptr inbounds [8 x double], [8 x double]* %23, i64 0, i64 6
  %94 = getelementptr inbounds [8 x double], [8 x double]* %23, i64 0, i64 7
  %95 = fmul double %7, -1.000000e-02
  %96 = getelementptr inbounds [4 x double], [4 x double]* %13, i64 0, i64 0
  %97 = getelementptr inbounds [4 x double], [4 x double]* %14, i64 0, i64 0
  %98 = getelementptr inbounds [4 x double], [4 x double]* %15, i64 0, i64 0
  %99 = getelementptr inbounds [4 x double], [4 x double]* %16, i64 0, i64 0
  %100 = getelementptr inbounds [4 x double], [4 x double]* %17, i64 0, i64 0
  %101 = getelementptr inbounds [4 x double], [4 x double]* %18, i64 0, i64 0
  %102 = getelementptr inbounds [4 x double], [4 x double]* %19, i64 0, i64 0
  %103 = getelementptr inbounds [4 x double], [4 x double]* %20, i64 0, i64 0
  %104 = getelementptr inbounds [8 x double], [8 x double]* %9, i64 0, i64 0
  %105 = getelementptr inbounds [8 x double], [8 x double]* %10, i64 0, i64 0
  %106 = getelementptr inbounds [8 x double], [8 x double]* %11, i64 0, i64 0
  %107 = getelementptr inbounds [8 x double], [8 x double]* %9, i64 0, i64 1
  %108 = getelementptr inbounds [8 x double], [8 x double]* %10, i64 0, i64 1
  %109 = getelementptr inbounds [8 x double], [8 x double]* %11, i64 0, i64 1
  %110 = getelementptr inbounds [8 x double], [8 x double]* %9, i64 0, i64 2
  %111 = getelementptr inbounds [8 x double], [8 x double]* %10, i64 0, i64 2
  %112 = getelementptr inbounds [8 x double], [8 x double]* %11, i64 0, i64 2
  %113 = getelementptr inbounds [8 x double], [8 x double]* %9, i64 0, i64 3
  %114 = getelementptr inbounds [8 x double], [8 x double]* %10, i64 0, i64 3
  %115 = getelementptr inbounds [8 x double], [8 x double]* %11, i64 0, i64 3
  %116 = getelementptr inbounds [8 x double], [8 x double]* %9, i64 0, i64 4
  %117 = getelementptr inbounds [8 x double], [8 x double]* %10, i64 0, i64 4
  %118 = getelementptr inbounds [8 x double], [8 x double]* %11, i64 0, i64 4
  %119 = getelementptr inbounds [8 x double], [8 x double]* %9, i64 0, i64 5
  %120 = getelementptr inbounds [8 x double], [8 x double]* %10, i64 0, i64 5
  %121 = getelementptr inbounds [8 x double], [8 x double]* %11, i64 0, i64 5
  %122 = getelementptr inbounds [8 x double], [8 x double]* %9, i64 0, i64 6
  %123 = getelementptr inbounds [8 x double], [8 x double]* %10, i64 0, i64 6
  %124 = getelementptr inbounds [8 x double], [8 x double]* %11, i64 0, i64 6
  %125 = getelementptr inbounds [8 x double], [8 x double]* %9, i64 0, i64 7
  %126 = getelementptr inbounds [8 x double], [8 x double]* %10, i64 0, i64 7
  %127 = getelementptr inbounds [8 x double], [8 x double]* %11, i64 0, i64 7
  %128 = icmp sgt i32 %24, 0
  br i1 %128, label %129, label %.loopexit

129:                                              ; preds = %8
  %130 = zext i32 %24 to i64
  br label %131

.loopexit:                                        ; preds = %471, %8
  call void @llvm.lifetime.end.p0i8(i64 64, i8* nonnull %39) #2
  call void @llvm.lifetime.end.p0i8(i64 64, i8* nonnull %38) #2
  call void @llvm.lifetime.end.p0i8(i64 64, i8* nonnull %37) #2
  call void @llvm.lifetime.end.p0i8(i64 32, i8* nonnull %36) #2
  call void @llvm.lifetime.end.p0i8(i64 32, i8* nonnull %35) #2
  call void @llvm.lifetime.end.p0i8(i64 32, i8* nonnull %34) #2
  call void @llvm.lifetime.end.p0i8(i64 32, i8* nonnull %33) #2
  call void @llvm.lifetime.end.p0i8(i64 32, i8* nonnull %32) #2
  call void @llvm.lifetime.end.p0i8(i64 32, i8* nonnull %31) #2
  call void @llvm.lifetime.end.p0i8(i64 32, i8* nonnull %30) #2
  call void @llvm.lifetime.end.p0i8(i64 32, i8* nonnull %29) #2
  call void @llvm.lifetime.end.p0i8(i64 256, i8* nonnull %28) #2
  call void @llvm.lifetime.end.p0i8(i64 64, i8* nonnull %27) #2
  call void @llvm.lifetime.end.p0i8(i64 64, i8* nonnull %26) #2
  call void @llvm.lifetime.end.p0i8(i64 64, i8* nonnull %25) #2
  ret void

131:                                              ; preds = %471, %129
  %132 = phi i64 [ 0, %129 ], [ %656, %471 ]
  %133 = shl nsw i64 %132, 3
  %134 = load i32*, i32** getelementptr inbounds (%struct.Mesh, %struct.Mesh* @mesh, i64 0, i32 17, i32 0, i32 0, i32 0, i32 0), align 8, !tbaa !8
  %135 = getelementptr inbounds double, double* %0, i64 %132
  %136 = load double, double* %135, align 8, !tbaa !10
  %137 = or i64 %133, 1
  %138 = or i64 %133, 2
  %139 = or i64 %133, 3
  %140 = or i64 %133, 4
  %141 = or i64 %133, 5
  %142 = or i64 %133, 6
  %143 = or i64 %133, 7
  %144 = getelementptr inbounds double, double* %6, i64 %143
  %145 = load double, double* %144, align 8, !tbaa !10
  %146 = getelementptr inbounds double, double* %5, i64 %143
  %147 = load double, double* %146, align 8, !tbaa !10
  %148 = getelementptr inbounds double, double* %4, i64 %143
  %149 = load double, double* %148, align 8, !tbaa !10
  %150 = getelementptr inbounds double, double* %6, i64 %142
  %151 = load double, double* %150, align 8, !tbaa !10
  %152 = getelementptr inbounds double, double* %5, i64 %142
  %153 = load double, double* %152, align 8, !tbaa !10
  %154 = getelementptr inbounds double, double* %4, i64 %142
  %155 = load double, double* %154, align 8, !tbaa !10
  %156 = getelementptr inbounds double, double* %6, i64 %141
  %157 = load double, double* %156, align 8, !tbaa !10
  %158 = getelementptr inbounds double, double* %5, i64 %141
  %159 = load double, double* %158, align 8, !tbaa !10
  %160 = getelementptr inbounds double, double* %4, i64 %141
  %161 = load double, double* %160, align 8, !tbaa !10
  %162 = getelementptr inbounds double, double* %6, i64 %140
  %163 = load double, double* %162, align 8, !tbaa !10
  %164 = getelementptr inbounds double, double* %5, i64 %140
  %165 = load double, double* %164, align 8, !tbaa !10
  %166 = getelementptr inbounds double, double* %4, i64 %140
  %167 = load double, double* %166, align 8, !tbaa !10
  %168 = getelementptr inbounds double, double* %6, i64 %139
  %169 = load double, double* %168, align 8, !tbaa !10
  %170 = getelementptr inbounds double, double* %5, i64 %139
  %171 = load double, double* %170, align 8, !tbaa !10
  %172 = getelementptr inbounds double, double* %4, i64 %139
  %173 = load double, double* %172, align 8, !tbaa !10
  %174 = getelementptr inbounds double, double* %6, i64 %138
  %175 = load double, double* %174, align 8, !tbaa !10
  %176 = getelementptr inbounds double, double* %5, i64 %138
  %177 = load double, double* %176, align 8, !tbaa !10
  %178 = getelementptr inbounds double, double* %4, i64 %138
  %179 = load double, double* %178, align 8, !tbaa !10
  %180 = getelementptr inbounds double, double* %6, i64 %137
  %181 = load double, double* %180, align 8, !tbaa !10
  %182 = getelementptr inbounds double, double* %5, i64 %137
  %183 = load double, double* %182, align 8, !tbaa !10
  %184 = getelementptr inbounds double, double* %4, i64 %137
  %185 = load double, double* %184, align 8, !tbaa !10
  %186 = getelementptr inbounds double, double* %6, i64 %133
  %187 = load double, double* %186, align 8, !tbaa !10
  %188 = getelementptr inbounds double, double* %5, i64 %133
  %189 = load double, double* %188, align 8, !tbaa !10
  %190 = getelementptr inbounds double, double* %4, i64 %133
  %191 = load double, double* %190, align 8, !tbaa !10
  %192 = getelementptr inbounds double, double* %3, i64 %143
  %193 = load double, double* %192, align 8, !tbaa !10
  %194 = getelementptr inbounds double, double* %3, i64 %142
  %195 = load double, double* %194, align 8, !tbaa !10
  %196 = getelementptr inbounds double, double* %3, i64 %141
  %197 = load double, double* %196, align 8, !tbaa !10
  %198 = getelementptr inbounds double, double* %3, i64 %140
  %199 = load double, double* %198, align 8, !tbaa !10
  %200 = getelementptr inbounds double, double* %3, i64 %139
  %201 = load double, double* %200, align 8, !tbaa !10
  %202 = getelementptr inbounds double, double* %3, i64 %138
  %203 = load double, double* %202, align 8, !tbaa !10
  %204 = getelementptr inbounds double, double* %3, i64 %137
  %205 = load double, double* %204, align 8, !tbaa !10
  %206 = getelementptr inbounds double, double* %3, i64 %133
  %207 = load double, double* %206, align 8, !tbaa !10
  %208 = getelementptr inbounds double, double* %2, i64 %143
  %209 = load double, double* %208, align 8, !tbaa !10
  %210 = getelementptr inbounds double, double* %2, i64 %142
  %211 = load double, double* %210, align 8, !tbaa !10
  %212 = getelementptr inbounds double, double* %2, i64 %141
  %213 = load double, double* %212, align 8, !tbaa !10
  %214 = getelementptr inbounds double, double* %2, i64 %140
  %215 = load double, double* %214, align 8, !tbaa !10
  %216 = getelementptr inbounds double, double* %2, i64 %139
  %217 = load double, double* %216, align 8, !tbaa !10
  %218 = getelementptr inbounds double, double* %2, i64 %138
  %219 = load double, double* %218, align 8, !tbaa !10
  %220 = getelementptr inbounds double, double* %2, i64 %137
  %221 = load double, double* %220, align 8, !tbaa !10
  %222 = getelementptr inbounds double, double* %2, i64 %133
  %223 = load double, double* %222, align 8, !tbaa !10
  %224 = getelementptr inbounds double, double* %1, i64 %143
  %225 = load double, double* %224, align 8, !tbaa !10
  %226 = getelementptr inbounds double, double* %1, i64 %142
  %227 = load double, double* %226, align 8, !tbaa !10
  %228 = getelementptr inbounds double, double* %1, i64 %141
  %229 = load double, double* %228, align 8, !tbaa !10
  %230 = getelementptr inbounds double, double* %1, i64 %140
  %231 = load double, double* %230, align 8, !tbaa !10
  %232 = getelementptr inbounds double, double* %1, i64 %139
  %233 = load double, double* %232, align 8, !tbaa !10
  %234 = getelementptr inbounds double, double* %1, i64 %138
  %235 = load double, double* %234, align 8, !tbaa !10
  %236 = getelementptr inbounds double, double* %1, i64 %137
  %237 = load double, double* %236, align 8, !tbaa !10
  %238 = getelementptr inbounds double, double* %1, i64 %133
  %239 = load double, double* %238, align 8, !tbaa !10
  %240 = fdiv double 1.000000e+00, %136
  %241 = insertelement <2 x double> poison, double %239, i32 0
  %242 = shufflevector <2 x double> %241, <2 x double> poison, <2 x i32> zeroinitializer
  %243 = insertelement <2 x double> poison, double %237, i32 0
  %244 = shufflevector <2 x double> %243, <2 x double> poison, <2 x i32> zeroinitializer
  %245 = insertelement <2 x double> poison, double %235, i32 0
  %246 = shufflevector <2 x double> %245, <2 x double> poison, <2 x i32> zeroinitializer
  %247 = insertelement <2 x double> poison, double %233, i32 0
  %248 = shufflevector <2 x double> %247, <2 x double> poison, <2 x i32> zeroinitializer
  %249 = insertelement <2 x double> poison, double %231, i32 0
  %250 = shufflevector <2 x double> %249, <2 x double> poison, <2 x i32> zeroinitializer
  %251 = insertelement <2 x double> poison, double %229, i32 0
  %252 = shufflevector <2 x double> %251, <2 x double> poison, <2 x i32> zeroinitializer
  %253 = insertelement <2 x double> poison, double %227, i32 0
  %254 = shufflevector <2 x double> %253, <2 x double> poison, <2 x i32> zeroinitializer
  %255 = insertelement <2 x double> poison, double %225, i32 0
  %256 = shufflevector <2 x double> %255, <2 x double> poison, <2 x i32> zeroinitializer
  %257 = insertelement <2 x double> poison, double %223, i32 0
  %258 = shufflevector <2 x double> %257, <2 x double> poison, <2 x i32> zeroinitializer
  %259 = insertelement <2 x double> poison, double %221, i32 0
  %260 = shufflevector <2 x double> %259, <2 x double> poison, <2 x i32> zeroinitializer
  %261 = insertelement <2 x double> poison, double %219, i32 0
  %262 = shufflevector <2 x double> %261, <2 x double> poison, <2 x i32> zeroinitializer
  %263 = insertelement <2 x double> poison, double %217, i32 0
  %264 = shufflevector <2 x double> %263, <2 x double> poison, <2 x i32> zeroinitializer
  %265 = insertelement <2 x double> poison, double %215, i32 0
  %266 = shufflevector <2 x double> %265, <2 x double> poison, <2 x i32> zeroinitializer
  %267 = insertelement <2 x double> poison, double %213, i32 0
  %268 = shufflevector <2 x double> %267, <2 x double> poison, <2 x i32> zeroinitializer
  %269 = insertelement <2 x double> poison, double %211, i32 0
  %270 = shufflevector <2 x double> %269, <2 x double> poison, <2 x i32> zeroinitializer
  %271 = insertelement <2 x double> poison, double %209, i32 0
  %272 = shufflevector <2 x double> %271, <2 x double> poison, <2 x i32> zeroinitializer
  %273 = insertelement <2 x double> poison, double %207, i32 0
  %274 = shufflevector <2 x double> %273, <2 x double> poison, <2 x i32> zeroinitializer
  %275 = insertelement <2 x double> poison, double %205, i32 0
  %276 = shufflevector <2 x double> %275, <2 x double> poison, <2 x i32> zeroinitializer
  %277 = insertelement <2 x double> poison, double %203, i32 0
  %278 = shufflevector <2 x double> %277, <2 x double> poison, <2 x i32> zeroinitializer
  %279 = insertelement <2 x double> poison, double %201, i32 0
  %280 = shufflevector <2 x double> %279, <2 x double> poison, <2 x i32> zeroinitializer
  %281 = insertelement <2 x double> poison, double %199, i32 0
  %282 = shufflevector <2 x double> %281, <2 x double> poison, <2 x i32> zeroinitializer
  %283 = insertelement <2 x double> poison, double %197, i32 0
  %284 = shufflevector <2 x double> %283, <2 x double> poison, <2 x i32> zeroinitializer
  %285 = insertelement <2 x double> poison, double %195, i32 0
  %286 = shufflevector <2 x double> %285, <2 x double> poison, <2 x i32> zeroinitializer
  %287 = insertelement <2 x double> poison, double %193, i32 0
  %288 = shufflevector <2 x double> %287, <2 x double> poison, <2 x i32> zeroinitializer
  %289 = insertelement <2 x double> poison, double %191, i32 0
  %290 = shufflevector <2 x double> %289, <2 x double> poison, <2 x i32> zeroinitializer
  %291 = insertelement <2 x double> poison, double %189, i32 0
  %292 = shufflevector <2 x double> %291, <2 x double> poison, <2 x i32> zeroinitializer
  %293 = insertelement <2 x double> poison, double %187, i32 0
  %294 = shufflevector <2 x double> %293, <2 x double> poison, <2 x i32> zeroinitializer
  %295 = insertelement <2 x double> poison, double %240, i32 0
  %296 = shufflevector <2 x double> %295, <2 x double> poison, <2 x i32> zeroinitializer
  %297 = insertelement <2 x double> poison, double %185, i32 0
  %298 = shufflevector <2 x double> %297, <2 x double> poison, <2 x i32> zeroinitializer
  %299 = insertelement <2 x double> poison, double %183, i32 0
  %300 = shufflevector <2 x double> %299, <2 x double> poison, <2 x i32> zeroinitializer
  %301 = insertelement <2 x double> poison, double %181, i32 0
  %302 = shufflevector <2 x double> %301, <2 x double> poison, <2 x i32> zeroinitializer
  %303 = insertelement <2 x double> poison, double %179, i32 0
  %304 = shufflevector <2 x double> %303, <2 x double> poison, <2 x i32> zeroinitializer
  %305 = insertelement <2 x double> poison, double %177, i32 0
  %306 = shufflevector <2 x double> %305, <2 x double> poison, <2 x i32> zeroinitializer
  %307 = insertelement <2 x double> poison, double %175, i32 0
  %308 = shufflevector <2 x double> %307, <2 x double> poison, <2 x i32> zeroinitializer
  %309 = insertelement <2 x double> poison, double %173, i32 0
  %310 = shufflevector <2 x double> %309, <2 x double> poison, <2 x i32> zeroinitializer
  %311 = insertelement <2 x double> poison, double %171, i32 0
  %312 = shufflevector <2 x double> %311, <2 x double> poison, <2 x i32> zeroinitializer
  %313 = insertelement <2 x double> poison, double %169, i32 0
  %314 = shufflevector <2 x double> %313, <2 x double> poison, <2 x i32> zeroinitializer
  %315 = insertelement <2 x double> poison, double %167, i32 0
  %316 = shufflevector <2 x double> %315, <2 x double> poison, <2 x i32> zeroinitializer
  %317 = insertelement <2 x double> poison, double %165, i32 0
  %318 = shufflevector <2 x double> %317, <2 x double> poison, <2 x i32> zeroinitializer
  %319 = insertelement <2 x double> poison, double %163, i32 0
  %320 = shufflevector <2 x double> %319, <2 x double> poison, <2 x i32> zeroinitializer
  %321 = insertelement <2 x double> poison, double %161, i32 0
  %322 = shufflevector <2 x double> %321, <2 x double> poison, <2 x i32> zeroinitializer
  %323 = insertelement <2 x double> poison, double %159, i32 0
  %324 = shufflevector <2 x double> %323, <2 x double> poison, <2 x i32> zeroinitializer
  %325 = insertelement <2 x double> poison, double %157, i32 0
  %326 = shufflevector <2 x double> %325, <2 x double> poison, <2 x i32> zeroinitializer
  %327 = insertelement <2 x double> poison, double %155, i32 0
  %328 = shufflevector <2 x double> %327, <2 x double> poison, <2 x i32> zeroinitializer
  %329 = insertelement <2 x double> poison, double %153, i32 0
  %330 = shufflevector <2 x double> %329, <2 x double> poison, <2 x i32> zeroinitializer
  %331 = insertelement <2 x double> poison, double %151, i32 0
  %332 = shufflevector <2 x double> %331, <2 x double> poison, <2 x i32> zeroinitializer
  %333 = insertelement <2 x double> poison, double %149, i32 0
  %334 = shufflevector <2 x double> %333, <2 x double> poison, <2 x i32> zeroinitializer
  %335 = insertelement <2 x double> poison, double %147, i32 0
  %336 = shufflevector <2 x double> %335, <2 x double> poison, <2 x i32> zeroinitializer
  %337 = insertelement <2 x double> poison, double %145, i32 0
  %338 = shufflevector <2 x double> %337, <2 x double> poison, <2 x i32> zeroinitializer
  br label %339

339:                                              ; preds = %339, %131
  %340 = phi i64 [ 0, %131 ], [ %469, %339 ]
  %341 = getelementptr inbounds [4 x [8 x double]], [4 x [8 x double]]* %12, i64 0, i64 %340, i64 0
  %342 = bitcast double* %341 to <16 x double>*
  %343 = load <16 x double>, <16 x double>* %342, align 16, !tbaa !10
  %344 = shufflevector <16 x double> %343, <16 x double> poison, <2 x i32> <i32 0, i32 8>
  %345 = shufflevector <16 x double> %343, <16 x double> poison, <2 x i32> <i32 1, i32 9>
  %346 = shufflevector <16 x double> %343, <16 x double> poison, <2 x i32> <i32 2, i32 10>
  %347 = shufflevector <16 x double> %343, <16 x double> poison, <2 x i32> <i32 3, i32 11>
  %348 = shufflevector <16 x double> %343, <16 x double> poison, <2 x i32> <i32 4, i32 12>
  %349 = shufflevector <16 x double> %343, <16 x double> poison, <2 x i32> <i32 5, i32 13>
  %350 = shufflevector <16 x double> %343, <16 x double> poison, <2 x i32> <i32 6, i32 14>
  %351 = shufflevector <16 x double> %343, <16 x double> poison, <2 x i32> <i32 7, i32 15>
  %352 = fmul <2 x double> %242, %344
  %353 = fmul <2 x double> %244, %345
  %354 = fadd <2 x double> %352, %353
  %355 = fmul <2 x double> %246, %346
  %356 = fadd <2 x double> %355, %354
  %357 = fmul <2 x double> %248, %347
  %358 = fadd <2 x double> %357, %356
  %359 = fmul <2 x double> %250, %348
  %360 = fadd <2 x double> %359, %358
  %361 = fmul <2 x double> %252, %349
  %362 = fadd <2 x double> %361, %360
  %363 = fmul <2 x double> %254, %350
  %364 = fadd <2 x double> %363, %362
  %365 = fmul <2 x double> %256, %351
  %366 = fadd <2 x double> %365, %364
  %367 = fmul <2 x double> %258, %344
  %368 = fmul <2 x double> %260, %345
  %369 = fadd <2 x double> %367, %368
  %370 = fmul <2 x double> %262, %346
  %371 = fadd <2 x double> %370, %369
  %372 = fmul <2 x double> %264, %347
  %373 = fadd <2 x double> %372, %371
  %374 = fmul <2 x double> %266, %348
  %375 = fadd <2 x double> %374, %373
  %376 = fmul <2 x double> %268, %349
  %377 = fadd <2 x double> %376, %375
  %378 = fmul <2 x double> %270, %350
  %379 = fadd <2 x double> %378, %377
  %380 = fmul <2 x double> %272, %351
  %381 = fadd <2 x double> %380, %379
  %382 = fmul <2 x double> %274, %344
  %383 = fmul <2 x double> %276, %345
  %384 = fadd <2 x double> %382, %383
  %385 = fmul <2 x double> %278, %346
  %386 = fadd <2 x double> %385, %384
  %387 = fmul <2 x double> %280, %347
  %388 = fadd <2 x double> %387, %386
  %389 = fmul <2 x double> %282, %348
  %390 = fadd <2 x double> %389, %388
  %391 = fmul <2 x double> %284, %349
  %392 = fadd <2 x double> %391, %390
  %393 = fmul <2 x double> %286, %350
  %394 = fadd <2 x double> %393, %392
  %395 = fmul <2 x double> %288, %351
  %396 = fadd <2 x double> %395, %394
  %397 = fmul <2 x double> %290, %366
  %398 = fmul <2 x double> %292, %381
  %399 = fadd <2 x double> %397, %398
  %400 = fmul <2 x double> %294, %396
  %401 = fadd <2 x double> %400, %399
  %402 = fmul <2 x double> %296, %401
  %403 = fsub <2 x double> %344, %402
  %404 = getelementptr inbounds [4 x double], [4 x double]* %13, i64 0, i64 %340
  %405 = bitcast double* %404 to <2 x double>*
  store <2 x double> %403, <2 x double>* %405, align 16, !tbaa !10
  %406 = fmul <2 x double> %298, %366
  %407 = fmul <2 x double> %300, %381
  %408 = fadd <2 x double> %406, %407
  %409 = fmul <2 x double> %302, %396
  %410 = fadd <2 x double> %409, %408
  %411 = fmul <2 x double> %296, %410
  %412 = fsub <2 x double> %345, %411
  %413 = getelementptr inbounds [4 x double], [4 x double]* %14, i64 0, i64 %340
  %414 = bitcast double* %413 to <2 x double>*
  store <2 x double> %412, <2 x double>* %414, align 16, !tbaa !10
  %415 = fmul <2 x double> %304, %366
  %416 = fmul <2 x double> %306, %381
  %417 = fadd <2 x double> %415, %416
  %418 = fmul <2 x double> %308, %396
  %419 = fadd <2 x double> %418, %417
  %420 = fmul <2 x double> %296, %419
  %421 = fsub <2 x double> %346, %420
  %422 = getelementptr inbounds [4 x double], [4 x double]* %15, i64 0, i64 %340
  %423 = bitcast double* %422 to <2 x double>*
  store <2 x double> %421, <2 x double>* %423, align 16, !tbaa !10
  %424 = fmul <2 x double> %310, %366
  %425 = fmul <2 x double> %312, %381
  %426 = fadd <2 x double> %424, %425
  %427 = fmul <2 x double> %314, %396
  %428 = fadd <2 x double> %427, %426
  %429 = fmul <2 x double> %296, %428
  %430 = fsub <2 x double> %347, %429
  %431 = getelementptr inbounds [4 x double], [4 x double]* %16, i64 0, i64 %340
  %432 = bitcast double* %431 to <2 x double>*
  store <2 x double> %430, <2 x double>* %432, align 16, !tbaa !10
  %433 = fmul <2 x double> %316, %366
  %434 = fmul <2 x double> %318, %381
  %435 = fadd <2 x double> %433, %434
  %436 = fmul <2 x double> %320, %396
  %437 = fadd <2 x double> %436, %435
  %438 = fmul <2 x double> %296, %437
  %439 = fsub <2 x double> %348, %438
  %440 = getelementptr inbounds [4 x double], [4 x double]* %17, i64 0, i64 %340
  %441 = bitcast double* %440 to <2 x double>*
  store <2 x double> %439, <2 x double>* %441, align 16, !tbaa !10
  %442 = fmul <2 x double> %322, %366
  %443 = fmul <2 x double> %324, %381
  %444 = fadd <2 x double> %442, %443
  %445 = fmul <2 x double> %326, %396
  %446 = fadd <2 x double> %445, %444
  %447 = fmul <2 x double> %296, %446
  %448 = fsub <2 x double> %349, %447
  %449 = getelementptr inbounds [4 x double], [4 x double]* %18, i64 0, i64 %340
  %450 = bitcast double* %449 to <2 x double>*
  store <2 x double> %448, <2 x double>* %450, align 16, !tbaa !10
  %451 = fmul <2 x double> %328, %366
  %452 = fmul <2 x double> %330, %381
  %453 = fadd <2 x double> %451, %452
  %454 = fmul <2 x double> %332, %396
  %455 = fadd <2 x double> %454, %453
  %456 = fmul <2 x double> %296, %455
  %457 = fsub <2 x double> %350, %456
  %458 = getelementptr inbounds [4 x double], [4 x double]* %19, i64 0, i64 %340
  %459 = bitcast double* %458 to <2 x double>*
  store <2 x double> %457, <2 x double>* %459, align 16, !tbaa !10
  %460 = fmul <2 x double> %334, %366
  %461 = fmul <2 x double> %336, %381
  %462 = fadd <2 x double> %460, %461
  %463 = fmul <2 x double> %338, %396
  %464 = fadd <2 x double> %463, %462
  %465 = fmul <2 x double> %296, %464
  %466 = fsub <2 x double> %351, %465
  %467 = getelementptr inbounds [4 x double], [4 x double]* %20, i64 0, i64 %340
  %468 = bitcast double* %467 to <2 x double>*
  store <2 x double> %466, <2 x double>* %468, align 16, !tbaa !10
  %469 = add nuw nsw i64 %340, 2
  %470 = icmp eq i64 %469, 4
  br i1 %470, label %471, label %339, !llvm.loop !21

471:                                              ; preds = %339
  %472 = getelementptr inbounds i32, i32* %134, i64 %133
  %473 = load double*, double** getelementptr inbounds (%struct.Mesh, %struct.Mesh* @mesh, i64 0, i32 45, i32 0, i32 0, i32 0, i32 0), align 8, !tbaa !3
  %474 = getelementptr inbounds double, double* %473, i64 %132
  %475 = load double, double* %474, align 8, !tbaa !10
  %476 = load double*, double** getelementptr inbounds (%struct.Mesh, %struct.Mesh* @mesh, i64 0, i32 46, i32 0, i32 0, i32 0, i32 0), align 8, !tbaa !3
  %477 = getelementptr inbounds double, double* %476, i64 %132
  %478 = load double, double* %477, align 8, !tbaa !10
  %479 = tail call double @cbrt(double %136) #31
  %480 = load i32, i32* %472, align 4, !tbaa !12
  %481 = getelementptr inbounds i32, i32* %472, i64 1
  %482 = load i32, i32* %481, align 4, !tbaa !12
  %483 = getelementptr inbounds i32, i32* %472, i64 2
  %484 = load i32, i32* %483, align 4, !tbaa !12
  %485 = getelementptr inbounds i32, i32* %472, i64 3
  %486 = load i32, i32* %485, align 4, !tbaa !12
  %487 = getelementptr inbounds i32, i32* %472, i64 4
  %488 = load i32, i32* %487, align 4, !tbaa !12
  %489 = getelementptr inbounds i32, i32* %472, i64 5
  %490 = load i32, i32* %489, align 4, !tbaa !12
  %491 = getelementptr inbounds i32, i32* %472, i64 6
  %492 = load i32, i32* %491, align 4, !tbaa !12
  %493 = getelementptr inbounds i32, i32* %472, i64 7
  %494 = load i32, i32* %493, align 4, !tbaa !12
  %495 = sext i32 %480 to i64
  %496 = load double*, double** getelementptr inbounds (%struct.Mesh, %struct.Mesh* @mesh, i64 0, i32 3, i32 0, i32 0, i32 0, i32 0), align 8, !tbaa !3
  %497 = getelementptr inbounds double, double* %496, i64 %495
  %498 = load double, double* %497, align 8, !tbaa !10
  store double %498, double* %71, align 16, !tbaa !10
  %499 = sext i32 %482 to i64
  %500 = getelementptr inbounds double, double* %496, i64 %499
  %501 = load double, double* %500, align 8, !tbaa !10
  store double %501, double* %72, align 8, !tbaa !10
  %502 = sext i32 %484 to i64
  %503 = getelementptr inbounds double, double* %496, i64 %502
  %504 = load double, double* %503, align 8, !tbaa !10
  store double %504, double* %73, align 16, !tbaa !10
  %505 = sext i32 %486 to i64
  %506 = getelementptr inbounds double, double* %496, i64 %505
  %507 = load double, double* %506, align 8, !tbaa !10
  store double %507, double* %74, align 8, !tbaa !10
  %508 = sext i32 %488 to i64
  %509 = getelementptr inbounds double, double* %496, i64 %508
  %510 = load double, double* %509, align 8, !tbaa !10
  store double %510, double* %75, align 16, !tbaa !10
  %511 = sext i32 %490 to i64
  %512 = getelementptr inbounds double, double* %496, i64 %511
  %513 = load double, double* %512, align 8, !tbaa !10
  store double %513, double* %76, align 8, !tbaa !10
  %514 = sext i32 %492 to i64
  %515 = getelementptr inbounds double, double* %496, i64 %514
  %516 = load double, double* %515, align 8, !tbaa !10
  store double %516, double* %77, align 16, !tbaa !10
  %517 = sext i32 %494 to i64
  %518 = getelementptr inbounds double, double* %496, i64 %517
  %519 = load double, double* %518, align 8, !tbaa !10
  store double %519, double* %78, align 8, !tbaa !10
  %520 = load double*, double** getelementptr inbounds (%struct.Mesh, %struct.Mesh* @mesh, i64 0, i32 4, i32 0, i32 0, i32 0, i32 0), align 8, !tbaa !3
  %521 = getelementptr inbounds double, double* %520, i64 %495
  %522 = load double, double* %521, align 8, !tbaa !10
  store double %522, double* %79, align 16, !tbaa !10
  %523 = getelementptr inbounds double, double* %520, i64 %499
  %524 = load double, double* %523, align 8, !tbaa !10
  store double %524, double* %80, align 8, !tbaa !10
  %525 = getelementptr inbounds double, double* %520, i64 %502
  %526 = load double, double* %525, align 8, !tbaa !10
  store double %526, double* %81, align 16, !tbaa !10
  %527 = getelementptr inbounds double, double* %520, i64 %505
  %528 = load double, double* %527, align 8, !tbaa !10
  store double %528, double* %82, align 8, !tbaa !10
  %529 = getelementptr inbounds double, double* %520, i64 %508
  %530 = load double, double* %529, align 8, !tbaa !10
  store double %530, double* %83, align 16, !tbaa !10
  %531 = getelementptr inbounds double, double* %520, i64 %511
  %532 = load double, double* %531, align 8, !tbaa !10
  store double %532, double* %84, align 8, !tbaa !10
  %533 = getelementptr inbounds double, double* %520, i64 %514
  %534 = load double, double* %533, align 8, !tbaa !10
  store double %534, double* %85, align 16, !tbaa !10
  %535 = getelementptr inbounds double, double* %520, i64 %517
  %536 = load double, double* %535, align 8, !tbaa !10
  store double %536, double* %86, align 8, !tbaa !10
  %537 = load double*, double** getelementptr inbounds (%struct.Mesh, %struct.Mesh* @mesh, i64 0, i32 5, i32 0, i32 0, i32 0, i32 0), align 8, !tbaa !3
  %538 = getelementptr inbounds double, double* %537, i64 %495
  %539 = load double, double* %538, align 8, !tbaa !10
  store double %539, double* %87, align 16, !tbaa !10
  %540 = getelementptr inbounds double, double* %537, i64 %499
  %541 = load double, double* %540, align 8, !tbaa !10
  store double %541, double* %88, align 8, !tbaa !10
  %542 = getelementptr inbounds double, double* %537, i64 %502
  %543 = load double, double* %542, align 8, !tbaa !10
  store double %543, double* %89, align 16, !tbaa !10
  %544 = getelementptr inbounds double, double* %537, i64 %505
  %545 = load double, double* %544, align 8, !tbaa !10
  store double %545, double* %90, align 8, !tbaa !10
  %546 = getelementptr inbounds double, double* %537, i64 %508
  %547 = load double, double* %546, align 8, !tbaa !10
  store double %547, double* %91, align 16, !tbaa !10
  %548 = getelementptr inbounds double, double* %537, i64 %511
  %549 = load double, double* %548, align 8, !tbaa !10
  store double %549, double* %92, align 8, !tbaa !10
  %550 = getelementptr inbounds double, double* %537, i64 %514
  %551 = load double, double* %550, align 8, !tbaa !10
  store double %551, double* %93, align 16, !tbaa !10
  %552 = getelementptr inbounds double, double* %537, i64 %517
  %553 = load double, double* %552, align 8, !tbaa !10
  store double %553, double* %94, align 8, !tbaa !10
  %554 = fmul double %95, %475
  %555 = fmul double %554, %478
  %556 = fdiv double %555, %479
  call void @_Z24CalcElemFBHourglassForcePdS_S_S_S_S_S_S_S_S_S_dS_S_S_(double* nonnull %71, double* nonnull %79, double* nonnull %87, double* nonnull %96, double* nonnull %97, double* nonnull %98, double* nonnull %99, double* nonnull %100, double* nonnull %101, double* nonnull %102, double* nonnull %103, double %556, double* nonnull %104, double* nonnull %105, double* nonnull %106)
  %557 = load double, double* %104, align 16, !tbaa !10
  %558 = load double*, double** getelementptr inbounds (%struct.Mesh, %struct.Mesh* @mesh, i64 0, i32 9, i32 0, i32 0, i32 0, i32 0), align 8, !tbaa !3
  %559 = getelementptr inbounds double, double* %558, i64 %495
  %560 = load double, double* %559, align 8, !tbaa !10
  %561 = fadd double %557, %560
  store double %561, double* %559, align 8, !tbaa !10
  %562 = load double, double* %105, align 16, !tbaa !10
  %563 = load double*, double** getelementptr inbounds (%struct.Mesh, %struct.Mesh* @mesh, i64 0, i32 10, i32 0, i32 0, i32 0, i32 0), align 8, !tbaa !3
  %564 = getelementptr inbounds double, double* %563, i64 %495
  %565 = load double, double* %564, align 8, !tbaa !10
  %566 = fadd double %562, %565
  store double %566, double* %564, align 8, !tbaa !10
  %567 = load double, double* %106, align 16, !tbaa !10
  %568 = load double*, double** getelementptr inbounds (%struct.Mesh, %struct.Mesh* @mesh, i64 0, i32 11, i32 0, i32 0, i32 0, i32 0), align 8, !tbaa !3
  %569 = getelementptr inbounds double, double* %568, i64 %495
  %570 = load double, double* %569, align 8, !tbaa !10
  %571 = fadd double %567, %570
  store double %571, double* %569, align 8, !tbaa !10
  %572 = load double, double* %107, align 8, !tbaa !10
  %573 = getelementptr inbounds double, double* %558, i64 %499
  %574 = load double, double* %573, align 8, !tbaa !10
  %575 = fadd double %572, %574
  store double %575, double* %573, align 8, !tbaa !10
  %576 = load double, double* %108, align 8, !tbaa !10
  %577 = getelementptr inbounds double, double* %563, i64 %499
  %578 = load double, double* %577, align 8, !tbaa !10
  %579 = fadd double %576, %578
  store double %579, double* %577, align 8, !tbaa !10
  %580 = load double, double* %109, align 8, !tbaa !10
  %581 = getelementptr inbounds double, double* %568, i64 %499
  %582 = load double, double* %581, align 8, !tbaa !10
  %583 = fadd double %580, %582
  store double %583, double* %581, align 8, !tbaa !10
  %584 = load double, double* %110, align 16, !tbaa !10
  %585 = getelementptr inbounds double, double* %558, i64 %502
  %586 = load double, double* %585, align 8, !tbaa !10
  %587 = fadd double %584, %586
  store double %587, double* %585, align 8, !tbaa !10
  %588 = load double, double* %111, align 16, !tbaa !10
  %589 = getelementptr inbounds double, double* %563, i64 %502
  %590 = load double, double* %589, align 8, !tbaa !10
  %591 = fadd double %588, %590
  store double %591, double* %589, align 8, !tbaa !10
  %592 = load double, double* %112, align 16, !tbaa !10
  %593 = getelementptr inbounds double, double* %568, i64 %502
  %594 = load double, double* %593, align 8, !tbaa !10
  %595 = fadd double %592, %594
  store double %595, double* %593, align 8, !tbaa !10
  %596 = load double, double* %113, align 8, !tbaa !10
  %597 = getelementptr inbounds double, double* %558, i64 %505
  %598 = load double, double* %597, align 8, !tbaa !10
  %599 = fadd double %596, %598
  store double %599, double* %597, align 8, !tbaa !10
  %600 = load double, double* %114, align 8, !tbaa !10
  %601 = getelementptr inbounds double, double* %563, i64 %505
  %602 = load double, double* %601, align 8, !tbaa !10
  %603 = fadd double %600, %602
  store double %603, double* %601, align 8, !tbaa !10
  %604 = load double, double* %115, align 8, !tbaa !10
  %605 = getelementptr inbounds double, double* %568, i64 %505
  %606 = load double, double* %605, align 8, !tbaa !10
  %607 = fadd double %604, %606
  store double %607, double* %605, align 8, !tbaa !10
  %608 = load double, double* %116, align 16, !tbaa !10
  %609 = getelementptr inbounds double, double* %558, i64 %508
  %610 = load double, double* %609, align 8, !tbaa !10
  %611 = fadd double %608, %610
  store double %611, double* %609, align 8, !tbaa !10
  %612 = load double, double* %117, align 16, !tbaa !10
  %613 = getelementptr inbounds double, double* %563, i64 %508
  %614 = load double, double* %613, align 8, !tbaa !10
  %615 = fadd double %612, %614
  store double %615, double* %613, align 8, !tbaa !10
  %616 = load double, double* %118, align 16, !tbaa !10
  %617 = getelementptr inbounds double, double* %568, i64 %508
  %618 = load double, double* %617, align 8, !tbaa !10
  %619 = fadd double %616, %618
  store double %619, double* %617, align 8, !tbaa !10
  %620 = load double, double* %119, align 8, !tbaa !10
  %621 = getelementptr inbounds double, double* %558, i64 %511
  %622 = load double, double* %621, align 8, !tbaa !10
  %623 = fadd double %620, %622
  store double %623, double* %621, align 8, !tbaa !10
  %624 = load double, double* %120, align 8, !tbaa !10
  %625 = getelementptr inbounds double, double* %563, i64 %511
  %626 = load double, double* %625, align 8, !tbaa !10
  %627 = fadd double %624, %626
  store double %627, double* %625, align 8, !tbaa !10
  %628 = load double, double* %121, align 8, !tbaa !10
  %629 = getelementptr inbounds double, double* %568, i64 %511
  %630 = load double, double* %629, align 8, !tbaa !10
  %631 = fadd double %628, %630
  store double %631, double* %629, align 8, !tbaa !10
  %632 = load double, double* %122, align 16, !tbaa !10
  %633 = getelementptr inbounds double, double* %558, i64 %514
  %634 = load double, double* %633, align 8, !tbaa !10
  %635 = fadd double %632, %634
  store double %635, double* %633, align 8, !tbaa !10
  %636 = load double, double* %123, align 16, !tbaa !10
  %637 = getelementptr inbounds double, double* %563, i64 %514
  %638 = load double, double* %637, align 8, !tbaa !10
  %639 = fadd double %636, %638
  store double %639, double* %637, align 8, !tbaa !10
  %640 = load double, double* %124, align 16, !tbaa !10
  %641 = getelementptr inbounds double, double* %568, i64 %514
  %642 = load double, double* %641, align 8, !tbaa !10
  %643 = fadd double %640, %642
  store double %643, double* %641, align 8, !tbaa !10
  %644 = load double, double* %125, align 8, !tbaa !10
  %645 = getelementptr inbounds double, double* %558, i64 %517
  %646 = load double, double* %645, align 8, !tbaa !10
  %647 = fadd double %644, %646
  store double %647, double* %645, align 8, !tbaa !10
  %648 = load double, double* %126, align 8, !tbaa !10
  %649 = getelementptr inbounds double, double* %563, i64 %517
  %650 = load double, double* %649, align 8, !tbaa !10
  %651 = fadd double %648, %650
  store double %651, double* %649, align 8, !tbaa !10
  %652 = load double, double* %127, align 8, !tbaa !10
  %653 = getelementptr inbounds double, double* %568, i64 %517
  %654 = load double, double* %653, align 8, !tbaa !10
  %655 = fadd double %652, %654
  store double %655, double* %653, align 8, !tbaa !10
  %656 = add nuw nsw i64 %132, 1
  %657 = icmp eq i64 %656, %130
  br i1 %657, label %.loopexit, label %131, !llvm.loop !23
}

; Function Attrs: mustprogress nofree nosync nounwind readnone willreturn
declare dso_local double @cbrt(double) local_unnamed_addr #9

; Function Attrs: mustprogress noinline nounwind uwtable
define dso_local void @_Z28CalcHourglassControlForElemsPdd(double* nocapture %0, double %1) local_unnamed_addr #10 {
  %3 = alloca [8 x double], align 16
  %4 = bitcast [8 x double]* %3 to i8*
  %5 = alloca [8 x double], align 16
  %6 = bitcast [8 x double]* %5 to i8*
  %7 = alloca [8 x double], align 16
  %8 = bitcast [8 x double]* %7 to i8*
  %9 = alloca [8 x double], align 16
  %10 = bitcast [8 x double]* %9 to i8*
  %11 = alloca [8 x double], align 16
  %12 = bitcast [8 x double]* %11 to i8*
  %13 = alloca [8 x double], align 16
  %14 = bitcast [8 x double]* %13 to i8*
  call void @llvm.lifetime.start.p0i8(i64 64, i8* nonnull %4) #2
  call void @llvm.lifetime.start.p0i8(i64 64, i8* nonnull %6) #2
  call void @llvm.lifetime.start.p0i8(i64 64, i8* nonnull %8) #2
  call void @llvm.lifetime.start.p0i8(i64 64, i8* nonnull %10) #2
  call void @llvm.lifetime.start.p0i8(i64 64, i8* nonnull %12) #2
  call void @llvm.lifetime.start.p0i8(i64 64, i8* nonnull %14) #2
  %15 = load i32, i32* getelementptr inbounds (%struct.Mesh, %struct.Mesh* @mesh, i64 0, i32 79), align 8, !tbaa !12
  %16 = shl nsw i32 %15, 3
  %17 = sext i32 %16 to i64
  %18 = shl nsw i64 %17, 3
  %19 = tail call noalias align 16 i8* @malloc(i64 %18) #2
  %20 = bitcast i8* %19 to double*
  %21 = tail call noalias align 16 i8* @malloc(i64 %18) #2
  %22 = bitcast i8* %21 to double*
  %23 = tail call noalias align 16 i8* @malloc(i64 %18) #2
  %24 = bitcast i8* %23 to double*
  %25 = tail call noalias align 16 i8* @malloc(i64 %18) #2
  %26 = bitcast i8* %25 to double*
  %27 = tail call noalias align 16 i8* @malloc(i64 %18) #2
  %28 = bitcast i8* %27 to double*
  %29 = tail call noalias align 16 i8* @malloc(i64 %18) #2
  %30 = bitcast i8* %29 to double*
  %31 = getelementptr inbounds [8 x double], [8 x double]* %3, i64 0, i64 0
  %32 = getelementptr inbounds [8 x double], [8 x double]* %5, i64 0, i64 0
  %33 = getelementptr inbounds [8 x double], [8 x double]* %7, i64 0, i64 0
  %34 = getelementptr inbounds [8 x double], [8 x double]* %9, i64 0, i64 0
  %35 = getelementptr inbounds [8 x double], [8 x double]* %11, i64 0, i64 0
  %36 = getelementptr inbounds [8 x double], [8 x double]* %13, i64 0, i64 0
  %37 = icmp sgt i32 %15, 0
  br i1 %37, label %38, label %.loopexit

38:                                               ; preds = %2
  %39 = zext i32 %15 to i64
  br label %42

40:                                               ; preds = %42
  %41 = icmp eq i64 %64, %39
  br i1 %41, label %.loopexit, label %42, !llvm.loop !24

42:                                               ; preds = %40, %38
  %43 = phi i64 [ 0, %38 ], [ %64, %40 ]
  %44 = shl nuw nsw i64 %43, 6
  %45 = getelementptr i8, i8* %29, i64 %44
  %46 = getelementptr i8, i8* %27, i64 %44
  %47 = getelementptr i8, i8* %25, i64 %44
  %48 = getelementptr i8, i8* %23, i64 %44
  %49 = getelementptr i8, i8* %21, i64 %44
  %50 = getelementptr i8, i8* %19, i64 %44
  %51 = shl nsw i64 %43, 3
  %52 = load i32*, i32** getelementptr inbounds (%struct.Mesh, %struct.Mesh* @mesh, i64 0, i32 17, i32 0, i32 0, i32 0, i32 0), align 8, !tbaa !8
  %53 = getelementptr inbounds i32, i32* %52, i64 %51
  call void @_Z29CollectDomainNodesToElemNodesPKiPdS1_S1_(i32* %53, double* nonnull %31, double* nonnull %32, double* nonnull %33)
  call void @_Z24CalcElemVolumeDerivativePdS_S_PKdS1_S1_(double* nonnull %34, double* nonnull %35, double* nonnull %36, double* nonnull %31, double* nonnull %32, double* nonnull %33)
  call void @llvm.memcpy.p0i8.p0i8.i64(i8* noundef nonnull align 16 dereferenceable(64) %50, i8* noundef nonnull align 16 dereferenceable(64) %10, i64 64, i1 false)
  call void @llvm.memcpy.p0i8.p0i8.i64(i8* noundef nonnull align 16 dereferenceable(64) %49, i8* noundef nonnull align 16 dereferenceable(64) %12, i64 64, i1 false)
  call void @llvm.memcpy.p0i8.p0i8.i64(i8* noundef nonnull align 16 dereferenceable(64) %48, i8* noundef nonnull align 16 dereferenceable(64) %14, i64 64, i1 false)
  call void @llvm.memcpy.p0i8.p0i8.i64(i8* noundef nonnull align 16 dereferenceable(64) %47, i8* noundef nonnull align 16 dereferenceable(64) %4, i64 64, i1 false)
  call void @llvm.memcpy.p0i8.p0i8.i64(i8* noundef nonnull align 16 dereferenceable(64) %46, i8* noundef nonnull align 16 dereferenceable(64) %6, i64 64, i1 false)
  call void @llvm.memcpy.p0i8.p0i8.i64(i8* noundef nonnull align 16 dereferenceable(64) %45, i8* noundef nonnull align 16 dereferenceable(64) %8, i64 64, i1 false)
  %54 = load double*, double** getelementptr inbounds (%struct.Mesh, %struct.Mesh* @mesh, i64 0, i32 40, i32 0, i32 0, i32 0, i32 0), align 8, !tbaa !3
  %55 = getelementptr inbounds double, double* %54, i64 %43
  %56 = load double, double* %55, align 8, !tbaa !10
  %57 = load double*, double** getelementptr inbounds (%struct.Mesh, %struct.Mesh* @mesh, i64 0, i32 39, i32 0, i32 0, i32 0, i32 0), align 8, !tbaa !3
  %58 = getelementptr inbounds double, double* %57, i64 %43
  %59 = load double, double* %58, align 8, !tbaa !10
  %60 = fmul double %56, %59
  %61 = getelementptr inbounds double, double* %0, i64 %43
  store double %60, double* %61, align 8, !tbaa !10
  %62 = load double, double* %58, align 8, !tbaa !10
  %63 = fcmp ugt double %62, 0.000000e+00
  %64 = add nuw nsw i64 %43, 1
  br i1 %63, label %40, label %65

65:                                               ; preds = %42
  tail call void @exit(i32 -1) #32
  unreachable

.loopexit:                                        ; preds = %40, %2
  %66 = fcmp ogt double %1, 0.000000e+00
  br i1 %66, label %67, label %68

67:                                               ; preds = %.loopexit
  tail call void @_Z28CalcFBHourglassForceForElemsPdS_S_S_S_S_S_d(double* %0, double* %26, double* %28, double* %30, double* %20, double* %22, double* %24, double %1)
  br label %68

68:                                               ; preds = %67, %.loopexit
  %69 = icmp eq i8* %29, null
  br i1 %69, label %71, label %70

70:                                               ; preds = %68
  tail call void @free(i8* nonnull %29) #2
  br label %71

71:                                               ; preds = %70, %68
  %72 = icmp eq i8* %27, null
  br i1 %72, label %74, label %73

73:                                               ; preds = %71
  tail call void @free(i8* nonnull %27) #2
  br label %74

74:                                               ; preds = %73, %71
  %75 = icmp eq i8* %25, null
  br i1 %75, label %77, label %76

76:                                               ; preds = %74
  tail call void @free(i8* nonnull %25) #2
  br label %77

77:                                               ; preds = %76, %74
  %78 = icmp eq i8* %23, null
  br i1 %78, label %80, label %79

79:                                               ; preds = %77
  tail call void @free(i8* nonnull %23) #2
  br label %80

80:                                               ; preds = %79, %77
  %81 = icmp eq i8* %21, null
  br i1 %81, label %83, label %82

82:                                               ; preds = %80
  tail call void @free(i8* nonnull %21) #2
  br label %83

83:                                               ; preds = %82, %80
  %84 = icmp eq i8* %19, null
  br i1 %84, label %86, label %85

85:                                               ; preds = %83
  tail call void @free(i8* nonnull %19) #2
  br label %86

86:                                               ; preds = %85, %83
  call void @llvm.lifetime.end.p0i8(i64 64, i8* nonnull %14) #2
  call void @llvm.lifetime.end.p0i8(i64 64, i8* nonnull %12) #2
  call void @llvm.lifetime.end.p0i8(i64 64, i8* nonnull %10) #2
  call void @llvm.lifetime.end.p0i8(i64 64, i8* nonnull %8) #2
  call void @llvm.lifetime.end.p0i8(i64 64, i8* nonnull %6) #2
  call void @llvm.lifetime.end.p0i8(i64 64, i8* nonnull %4) #2
  ret void
}

; Function Attrs: inaccessiblememonly mustprogress nofree nounwind willreturn
declare dso_local noalias noundef align 16 i8* @malloc(i64 noundef) local_unnamed_addr #11

; Function Attrs: argmemonly mustprogress nofree nounwind willreturn
declare void @llvm.memcpy.p0i8.p0i8.i64(i8* noalias nocapture writeonly, i8* noalias nocapture readonly, i64, i1 immarg) #12

; Function Attrs: noreturn nounwind
declare dso_local void @exit(i32) local_unnamed_addr #13

; Function Attrs: inaccessiblemem_or_argmemonly mustprogress nounwind willreturn
declare dso_local void @free(i8* nocapture noundef) local_unnamed_addr #14

; Function Attrs: mustprogress noinline nounwind uwtable
define dso_local void @_Z23CalcVolumeForceForElemsv() local_unnamed_addr #10 {
  %1 = load i32, i32* getelementptr inbounds (%struct.Mesh, %struct.Mesh* @mesh, i64 0, i32 79), align 8, !tbaa !12
  %2 = icmp eq i32 %1, 0
  br i1 %2, label %40, label %3

3:                                                ; preds = %0
  %4 = load double, double* getelementptr inbounds (%struct.Mesh, %struct.Mesh* @mesh, i64 0, i32 54), align 8, !tbaa !10
  %5 = sext i32 %1 to i64
  %6 = shl nsw i64 %5, 3
  %7 = tail call noalias align 16 i8* @malloc(i64 %6) #2
  %8 = bitcast i8* %7 to double*
  %9 = tail call noalias align 16 i8* @malloc(i64 %6) #2
  %10 = bitcast i8* %9 to double*
  %11 = tail call noalias align 16 i8* @malloc(i64 %6) #2
  %12 = bitcast i8* %11 to double*
  %13 = tail call noalias align 16 i8* @malloc(i64 %6) #2
  %14 = bitcast i8* %13 to double*
  tail call void @_Z23InitStressTermsForElemsiPdS_S_(i32 %1, double* %8, double* %10, double* %12)
  tail call void @_Z23IntegrateStressForElemsiPdS_S_S_(i32 %1, double* %8, double* %10, double* %12, double* %14)
  %15 = icmp sgt i32 %1, 0
  br i1 %15, label %16, label %21

16:                                               ; preds = %3
  %17 = zext i32 %1 to i64
  br label %33

18:                                               ; preds = %33
  %19 = icmp eq i64 %38, %17
  br i1 %19, label %20, label %33, !llvm.loop !25

20:                                               ; preds = %18
  tail call void @_Z28CalcHourglassControlForElemsPdd(double* nonnull %14, double %4)
  br label %23

21:                                               ; preds = %3
  tail call void @_Z28CalcHourglassControlForElemsPdd(double* %14, double %4)
  %22 = icmp eq i8* %13, null
  br i1 %22, label %24, label %23

23:                                               ; preds = %21, %20
  tail call void @free(i8* nonnull %13) #2
  br label %24

24:                                               ; preds = %23, %21
  %25 = icmp eq i8* %11, null
  br i1 %25, label %27, label %26

26:                                               ; preds = %24
  tail call void @free(i8* nonnull %11) #2
  br label %27

27:                                               ; preds = %26, %24
  %28 = icmp eq i8* %9, null
  br i1 %28, label %30, label %29

29:                                               ; preds = %27
  tail call void @free(i8* nonnull %9) #2
  br label %30

30:                                               ; preds = %29, %27
  %31 = icmp eq i8* %7, null
  br i1 %31, label %40, label %32

32:                                               ; preds = %30
  tail call void @free(i8* nonnull %7) #2
  br label %40

33:                                               ; preds = %18, %16
  %34 = phi i64 [ 0, %16 ], [ %38, %18 ]
  %35 = getelementptr inbounds double, double* %14, i64 %34
  %36 = load double, double* %35, align 8, !tbaa !10
  %37 = fcmp ugt double %36, 0.000000e+00
  %38 = add nuw nsw i64 %34, 1
  br i1 %37, label %18, label %39

39:                                               ; preds = %33
  tail call void @exit(i32 -1) #32
  unreachable

40:                                               ; preds = %32, %30, %0
  ret void
}

; Function Attrs: mustprogress noinline nounwind uwtable
define dso_local void @_Z17CalcForceForNodesv() local_unnamed_addr #10 {
  %1 = load i32, i32* getelementptr inbounds (%struct.Mesh, %struct.Mesh* @mesh, i64 0, i32 80), align 4, !tbaa !12
  %2 = load double*, double** getelementptr inbounds (%struct.Mesh, %struct.Mesh* @mesh, i64 0, i32 9, i32 0, i32 0, i32 0, i32 0), align 8
  %3 = load double*, double** getelementptr inbounds (%struct.Mesh, %struct.Mesh* @mesh, i64 0, i32 10, i32 0, i32 0, i32 0, i32 0), align 8
  %4 = load double*, double** getelementptr inbounds (%struct.Mesh, %struct.Mesh* @mesh, i64 0, i32 11, i32 0, i32 0, i32 0, i32 0), align 8
  %5 = icmp sgt i32 %1, 0
  br i1 %5, label %6, label %.loopexit

6:                                                ; preds = %0
  %7 = zext i32 %1 to i64
  %8 = icmp eq i32 %1, 1
  br i1 %8, label %.preheader, label %9

.preheader:                                       ; preds = %36, %9, %6
  %.ph = phi i64 [ %25, %36 ], [ 0, %6 ], [ 0, %9 ]
  br label %38

9:                                                ; preds = %6
  %10 = getelementptr double, double* %2, i64 %7
  %11 = getelementptr double, double* %3, i64 %7
  %12 = getelementptr double, double* %4, i64 %7
  %13 = icmp ult double* %2, %11
  %14 = icmp ult double* %3, %10
  %15 = and i1 %14, %13
  %16 = icmp ult double* %2, %12
  %17 = icmp ult double* %4, %10
  %18 = and i1 %17, %16
  %19 = or i1 %15, %18
  %20 = icmp ult double* %3, %12
  %21 = icmp ult double* %4, %11
  %22 = and i1 %21, %20
  %23 = or i1 %22, %19
  br i1 %23, label %.preheader, label %24

24:                                               ; preds = %9
  %25 = and i64 %7, 4294967294
  br label %26

26:                                               ; preds = %26, %24
  %27 = phi i64 [ 0, %24 ], [ %34, %26 ]
  %28 = getelementptr inbounds double, double* %2, i64 %27
  %29 = bitcast double* %28 to <2 x double>*
  store <2 x double> zeroinitializer, <2 x double>* %29, align 8, !tbaa !10, !alias.scope !26, !noalias !29
  %30 = getelementptr inbounds double, double* %3, i64 %27
  %31 = bitcast double* %30 to <2 x double>*
  store <2 x double> zeroinitializer, <2 x double>* %31, align 8, !tbaa !10, !alias.scope !32, !noalias !33
  %32 = getelementptr inbounds double, double* %4, i64 %27
  %33 = bitcast double* %32 to <2 x double>*
  store <2 x double> zeroinitializer, <2 x double>* %33, align 8, !tbaa !10, !alias.scope !33
  %34 = add nuw i64 %27, 2
  %35 = icmp eq i64 %34, %25
  br i1 %35, label %36, label %26, !llvm.loop !34

36:                                               ; preds = %26
  %37 = icmp eq i64 %25, %7
  br i1 %37, label %.loopexit, label %.preheader

.loopexit:                                        ; preds = %38, %36, %0
  tail call void @_Z23CalcVolumeForceForElemsv()
  ret void

38:                                               ; preds = %.preheader, %38
  %39 = phi i64 [ %43, %38 ], [ %.ph, %.preheader ]
  %40 = getelementptr inbounds double, double* %2, i64 %39
  store double 0.000000e+00, double* %40, align 8, !tbaa !10
  %41 = getelementptr inbounds double, double* %3, i64 %39
  store double 0.000000e+00, double* %41, align 8, !tbaa !10
  %42 = getelementptr inbounds double, double* %4, i64 %39
  store double 0.000000e+00, double* %42, align 8, !tbaa !10
  %43 = add nuw nsw i64 %39, 1
  %44 = icmp eq i64 %43, %7
  br i1 %44, label %.loopexit, label %38, !llvm.loop !35
}

; Function Attrs: mustprogress nofree noinline norecurse nosync nounwind uwtable
define dso_local void @_Z24CalcAccelerationForNodesv() local_unnamed_addr #6 {
  %1 = load i32, i32* getelementptr inbounds (%struct.Mesh, %struct.Mesh* @mesh, i64 0, i32 80), align 4, !tbaa !12
  %2 = load double*, double** getelementptr inbounds (%struct.Mesh, %struct.Mesh* @mesh, i64 0, i32 9, i32 0, i32 0, i32 0, i32 0), align 8
  %3 = load double*, double** getelementptr inbounds (%struct.Mesh, %struct.Mesh* @mesh, i64 0, i32 12, i32 0, i32 0, i32 0, i32 0), align 8
  %4 = load double*, double** getelementptr inbounds (%struct.Mesh, %struct.Mesh* @mesh, i64 0, i32 6, i32 0, i32 0, i32 0, i32 0), align 8
  %5 = load double*, double** getelementptr inbounds (%struct.Mesh, %struct.Mesh* @mesh, i64 0, i32 10, i32 0, i32 0, i32 0, i32 0), align 8
  %6 = load double*, double** getelementptr inbounds (%struct.Mesh, %struct.Mesh* @mesh, i64 0, i32 7, i32 0, i32 0, i32 0, i32 0), align 8
  %7 = load double*, double** getelementptr inbounds (%struct.Mesh, %struct.Mesh* @mesh, i64 0, i32 11, i32 0, i32 0, i32 0, i32 0), align 8
  %8 = load double*, double** getelementptr inbounds (%struct.Mesh, %struct.Mesh* @mesh, i64 0, i32 8, i32 0, i32 0, i32 0, i32 0), align 8
  %9 = icmp sgt i32 %1, 0
  br i1 %9, label %10, label %.loopexit

10:                                               ; preds = %0
  %11 = zext i32 %1 to i64
  br label %12

.loopexit:                                        ; preds = %12, %0
  ret void

12:                                               ; preds = %12, %10
  %13 = phi i64 [ 0, %10 ], [ %30, %12 ]
  %14 = getelementptr inbounds double, double* %2, i64 %13
  %15 = load double, double* %14, align 8, !tbaa !10
  %16 = getelementptr inbounds double, double* %3, i64 %13
  %17 = load double, double* %16, align 8, !tbaa !10
  %18 = fdiv double %15, %17
  %19 = getelementptr inbounds double, double* %4, i64 %13
  store double %18, double* %19, align 8, !tbaa !10
  %20 = getelementptr inbounds double, double* %5, i64 %13
  %21 = load double, double* %20, align 8, !tbaa !10
  %22 = load double, double* %16, align 8, !tbaa !10
  %23 = fdiv double %21, %22
  %24 = getelementptr inbounds double, double* %6, i64 %13
  store double %23, double* %24, align 8, !tbaa !10
  %25 = getelementptr inbounds double, double* %7, i64 %13
  %26 = load double, double* %25, align 8, !tbaa !10
  %27 = load double, double* %16, align 8, !tbaa !10
  %28 = fdiv double %26, %27
  %29 = getelementptr inbounds double, double* %8, i64 %13
  store double %28, double* %29, align 8, !tbaa !10
  %30 = add nuw nsw i64 %13, 1
  %31 = icmp eq i64 %30, %11
  br i1 %31, label %.loopexit, label %12, !llvm.loop !36
}

; Function Attrs: mustprogress nofree noinline norecurse nosync nounwind uwtable
define dso_local void @_Z43ApplyAccelerationBoundaryConditionsForNodesv() local_unnamed_addr #6 {
  %1 = load i32, i32* getelementptr inbounds (%struct.Mesh, %struct.Mesh* @mesh, i64 0, i32 76), align 4, !tbaa !12
  %2 = add i32 %1, 1
  %3 = mul i32 %2, %2
  %4 = load i32*, i32** getelementptr inbounds (%struct.Mesh, %struct.Mesh* @mesh, i64 0, i32 13, i32 0, i32 0, i32 0, i32 0), align 8
  %5 = load double*, double** getelementptr inbounds (%struct.Mesh, %struct.Mesh* @mesh, i64 0, i32 6, i32 0, i32 0, i32 0, i32 0), align 8
  %6 = icmp eq i32 %3, 0
  br i1 %6, label %.loopexit, label %7

7:                                                ; preds = %0
  %8 = zext i32 %3 to i64
  br label %12

9:                                                ; preds = %12
  %10 = load i32*, i32** getelementptr inbounds (%struct.Mesh, %struct.Mesh* @mesh, i64 0, i32 14, i32 0, i32 0, i32 0, i32 0), align 8
  %11 = load double*, double** getelementptr inbounds (%struct.Mesh, %struct.Mesh* @mesh, i64 0, i32 7, i32 0, i32 0, i32 0, i32 0), align 8
  br label %23

12:                                               ; preds = %12, %7
  %13 = phi i64 [ 0, %7 ], [ %18, %12 ]
  %14 = getelementptr inbounds i32, i32* %4, i64 %13
  %15 = load i32, i32* %14, align 4, !tbaa !12
  %16 = sext i32 %15 to i64
  %17 = getelementptr inbounds double, double* %5, i64 %16
  store double 0.000000e+00, double* %17, align 8, !tbaa !10
  %18 = add nuw nsw i64 %13, 1
  %19 = icmp eq i64 %18, %8
  br i1 %19, label %9, label %12, !llvm.loop !37

20:                                               ; preds = %23
  %21 = load i32*, i32** getelementptr inbounds (%struct.Mesh, %struct.Mesh* @mesh, i64 0, i32 15, i32 0, i32 0, i32 0, i32 0), align 8
  %22 = load double*, double** getelementptr inbounds (%struct.Mesh, %struct.Mesh* @mesh, i64 0, i32 8, i32 0, i32 0, i32 0, i32 0), align 8
  br label %31

23:                                               ; preds = %23, %9
  %24 = phi i64 [ 0, %9 ], [ %29, %23 ]
  %25 = getelementptr inbounds i32, i32* %10, i64 %24
  %26 = load i32, i32* %25, align 4, !tbaa !12
  %27 = sext i32 %26 to i64
  %28 = getelementptr inbounds double, double* %11, i64 %27
  store double 0.000000e+00, double* %28, align 8, !tbaa !10
  %29 = add nuw nsw i64 %24, 1
  %30 = icmp eq i64 %29, %8
  br i1 %30, label %20, label %23, !llvm.loop !38

.loopexit:                                        ; preds = %31, %0
  ret void

31:                                               ; preds = %31, %20
  %32 = phi i64 [ 0, %20 ], [ %37, %31 ]
  %33 = getelementptr inbounds i32, i32* %21, i64 %32
  %34 = load i32, i32* %33, align 4, !tbaa !12
  %35 = sext i32 %34 to i64
  %36 = getelementptr inbounds double, double* %22, i64 %35
  store double 0.000000e+00, double* %36, align 8, !tbaa !10
  %37 = add nuw nsw i64 %32, 1
  %38 = icmp eq i64 %37, %8
  br i1 %38, label %.loopexit, label %31, !llvm.loop !39
}

; Function Attrs: mustprogress nofree noinline nosync nounwind uwtable
define dso_local void @_Z20CalcVelocityForNodesdd(double %0, double %1) local_unnamed_addr #7 {
  %3 = load i32, i32* getelementptr inbounds (%struct.Mesh, %struct.Mesh* @mesh, i64 0, i32 80), align 4, !tbaa !12
  %4 = load double*, double** getelementptr inbounds (%struct.Mesh, %struct.Mesh* @mesh, i64 0, i32 3, i32 0, i32 0, i32 0, i32 0), align 8
  %5 = load double*, double** getelementptr inbounds (%struct.Mesh, %struct.Mesh* @mesh, i64 0, i32 6, i32 0, i32 0, i32 0, i32 0), align 8
  %6 = load double*, double** getelementptr inbounds (%struct.Mesh, %struct.Mesh* @mesh, i64 0, i32 4, i32 0, i32 0, i32 0, i32 0), align 8
  %7 = load double*, double** getelementptr inbounds (%struct.Mesh, %struct.Mesh* @mesh, i64 0, i32 7, i32 0, i32 0, i32 0, i32 0), align 8
  %8 = load double*, double** getelementptr inbounds (%struct.Mesh, %struct.Mesh* @mesh, i64 0, i32 5, i32 0, i32 0, i32 0, i32 0), align 8
  %9 = load double*, double** getelementptr inbounds (%struct.Mesh, %struct.Mesh* @mesh, i64 0, i32 8, i32 0, i32 0, i32 0, i32 0), align 8
  %10 = icmp sgt i32 %3, 0
  br i1 %10, label %11, label %.loopexit

11:                                               ; preds = %2
  %12 = zext i32 %3 to i64
  br label %13

.loopexit:                                        ; preds = %13, %2
  ret void

13:                                               ; preds = %13, %11
  %14 = phi i64 [ 0, %11 ], [ %42, %13 ]
  %15 = getelementptr inbounds double, double* %4, i64 %14
  %16 = load double, double* %15, align 8, !tbaa !10
  %17 = getelementptr inbounds double, double* %5, i64 %14
  %18 = load double, double* %17, align 8, !tbaa !10
  %19 = fmul double %18, %0
  %20 = fadd double %16, %19
  %21 = tail call double @llvm.fabs.f64(double %20) #2
  %22 = fcmp olt double %21, %1
  %23 = select i1 %22, double 0.000000e+00, double %20
  store double %23, double* %15, align 8, !tbaa !10
  %24 = getelementptr inbounds double, double* %6, i64 %14
  %25 = load double, double* %24, align 8, !tbaa !10
  %26 = getelementptr inbounds double, double* %7, i64 %14
  %27 = load double, double* %26, align 8, !tbaa !10
  %28 = fmul double %27, %0
  %29 = fadd double %25, %28
  %30 = tail call double @llvm.fabs.f64(double %29) #2
  %31 = fcmp olt double %30, %1
  %32 = select i1 %31, double 0.000000e+00, double %29
  store double %32, double* %24, align 8, !tbaa !10
  %33 = getelementptr inbounds double, double* %8, i64 %14
  %34 = load double, double* %33, align 8, !tbaa !10
  %35 = getelementptr inbounds double, double* %9, i64 %14
  %36 = load double, double* %35, align 8, !tbaa !10
  %37 = fmul double %36, %0
  %38 = fadd double %34, %37
  %39 = tail call double @llvm.fabs.f64(double %38) #2
  %40 = fcmp olt double %39, %1
  %41 = select i1 %40, double 0.000000e+00, double %38
  store double %41, double* %33, align 8, !tbaa !10
  %42 = add nuw nsw i64 %14, 1
  %43 = icmp eq i64 %42, %12
  br i1 %43, label %.loopexit, label %13, !llvm.loop !40
}

; Function Attrs: mustprogress nofree nosync nounwind readnone speculatable willreturn
declare double @llvm.fabs.f64(double) #15

; Function Attrs: mustprogress nofree noinline norecurse nosync nounwind uwtable
define dso_local void @_Z20CalcPositionForNodesd(double %0) local_unnamed_addr #6 {
  %2 = load i32, i32* getelementptr inbounds (%struct.Mesh, %struct.Mesh* @mesh, i64 0, i32 80), align 4, !tbaa !12
  %3 = load double*, double** getelementptr inbounds (%struct.Mesh, %struct.Mesh* @mesh, i64 0, i32 3, i32 0, i32 0, i32 0, i32 0), align 8
  %4 = load double*, double** getelementptr inbounds (%struct.Mesh, %struct.Mesh* @mesh, i64 0, i32 0, i32 0, i32 0, i32 0, i32 0), align 8
  %5 = load double*, double** getelementptr inbounds (%struct.Mesh, %struct.Mesh* @mesh, i64 0, i32 4, i32 0, i32 0, i32 0, i32 0), align 8
  %6 = load double*, double** getelementptr inbounds (%struct.Mesh, %struct.Mesh* @mesh, i64 0, i32 1, i32 0, i32 0, i32 0, i32 0), align 8
  %7 = load double*, double** getelementptr inbounds (%struct.Mesh, %struct.Mesh* @mesh, i64 0, i32 5, i32 0, i32 0, i32 0, i32 0), align 8
  %8 = load double*, double** getelementptr inbounds (%struct.Mesh, %struct.Mesh* @mesh, i64 0, i32 2, i32 0, i32 0, i32 0, i32 0), align 8
  %9 = icmp sgt i32 %2, 0
  br i1 %9, label %10, label %.loopexit

10:                                               ; preds = %1
  %11 = zext i32 %2 to i64
  br label %12

.loopexit:                                        ; preds = %12, %1
  ret void

12:                                               ; preds = %12, %10
  %13 = phi i64 [ 0, %10 ], [ %32, %12 ]
  %14 = getelementptr inbounds double, double* %3, i64 %13
  %15 = load double, double* %14, align 8, !tbaa !10
  %16 = fmul double %15, %0
  %17 = getelementptr inbounds double, double* %4, i64 %13
  %18 = load double, double* %17, align 8, !tbaa !10
  %19 = fadd double %16, %18
  store double %19, double* %17, align 8, !tbaa !10
  %20 = getelementptr inbounds double, double* %5, i64 %13
  %21 = load double, double* %20, align 8, !tbaa !10
  %22 = fmul double %21, %0
  %23 = getelementptr inbounds double, double* %6, i64 %13
  %24 = load double, double* %23, align 8, !tbaa !10
  %25 = fadd double %22, %24
  store double %25, double* %23, align 8, !tbaa !10
  %26 = getelementptr inbounds double, double* %7, i64 %13
  %27 = load double, double* %26, align 8, !tbaa !10
  %28 = fmul double %27, %0
  %29 = getelementptr inbounds double, double* %8, i64 %13
  %30 = load double, double* %29, align 8, !tbaa !10
  %31 = fadd double %28, %30
  store double %31, double* %29, align 8, !tbaa !10
  %32 = add nuw nsw i64 %13, 1
  %33 = icmp eq i64 %32, %11
  br i1 %33, label %.loopexit, label %12, !llvm.loop !41
}

; Function Attrs: mustprogress noinline nounwind uwtable
define dso_local void @_Z13LagrangeNodalv() local_unnamed_addr #10 {
  %1 = load double, double* getelementptr inbounds (%struct.Mesh, %struct.Mesh* @mesh, i64 0, i32 49), align 8, !tbaa !10
  %2 = load double, double* getelementptr inbounds (%struct.Mesh, %struct.Mesh* @mesh, i64 0, i32 53), align 8, !tbaa !10
  tail call void @_Z17CalcForceForNodesv()
  tail call void @_Z24CalcAccelerationForNodesv()
  tail call void @_Z43ApplyAccelerationBoundaryConditionsForNodesv()
  tail call void @_Z20CalcVelocityForNodesdd(double %1, double %2)
  tail call void @_Z20CalcPositionForNodesd(double %1)
  ret void
}

; Function Attrs: mustprogress nofree noinline norecurse nosync nounwind readnone uwtable willreturn
define dso_local double @_Z14CalcElemVolumedddddddddddddddddddddddd(double %0, double %1, double %2, double %3, double %4, double %5, double %6, double %7, double %8, double %9, double %10, double %11, double %12, double %13, double %14, double %15, double %16, double %17, double %18, double %19, double %20, double %21, double %22, double %23) local_unnamed_addr #16 {
  %25 = fsub double %7, %0
  %26 = insertelement <2 x double> poison, double %15, i32 0
  %27 = insertelement <2 x double> %26, double %23, i32 1
  %28 = insertelement <2 x double> poison, double %8, i32 0
  %29 = insertelement <2 x double> %28, double %16, i32 1
  %30 = fsub <2 x double> %27, %29
  %31 = insertelement <2 x double> poison, double %6, i32 0
  %32 = shufflevector <2 x double> %31, <2 x double> poison, <2 x i32> zeroinitializer
  %33 = insertelement <2 x double> poison, double %1, i32 0
  %34 = insertelement <2 x double> %33, double %3, i32 1
  %35 = fsub <2 x double> %32, %34
  %36 = insertelement <2 x double> poison, double %14, i32 0
  %37 = shufflevector <2 x double> %36, <2 x double> poison, <2 x i32> zeroinitializer
  %38 = insertelement <2 x double> poison, double %9, i32 0
  %39 = insertelement <2 x double> %38, double %11, i32 1
  %40 = fsub <2 x double> %37, %39
  %41 = insertelement <2 x double> poison, double %22, i32 0
  %42 = shufflevector <2 x double> %41, <2 x double> poison, <2 x i32> zeroinitializer
  %43 = insertelement <2 x double> poison, double %17, i32 0
  %44 = insertelement <2 x double> %43, double %19, i32 1
  %45 = fsub <2 x double> %42, %44
  %46 = insertelement <2 x double> poison, double %5, i32 0
  %47 = insertelement <2 x double> %46, double %2, i32 1
  %48 = insertelement <2 x double> poison, double %0, i32 0
  %49 = shufflevector <2 x double> %48, <2 x double> poison, <2 x i32> zeroinitializer
  %50 = fsub <2 x double> %47, %49
  %51 = insertelement <2 x double> poison, double %13, i32 0
  %52 = insertelement <2 x double> %51, double %10, i32 1
  %53 = shufflevector <2 x double> %28, <2 x double> poison, <2 x i32> zeroinitializer
  %54 = fsub <2 x double> %52, %53
  %55 = insertelement <2 x double> poison, double %21, i32 0
  %56 = insertelement <2 x double> %55, double %18, i32 1
  %57 = insertelement <2 x double> poison, double %16, i32 0
  %58 = shufflevector <2 x double> %57, <2 x double> poison, <2 x i32> zeroinitializer
  %59 = fsub <2 x double> %56, %58
  %60 = insertelement <2 x double> %31, double %14, i32 1
  %61 = insertelement <2 x double> poison, double %4, i32 0
  %62 = insertelement <2 x double> %61, double %12, i32 1
  %63 = fsub <2 x double> %60, %62
  %64 = fsub double %22, %20
  %65 = fsub double %12, %11
  %66 = insertelement <2 x double> poison, double %20, i32 0
  %67 = insertelement <2 x double> %66, double %4, i32 1
  %68 = insertelement <2 x double> poison, double %19, i32 0
  %69 = insertelement <2 x double> %68, double %3, i32 1
  %70 = fsub <2 x double> %67, %69
  %71 = fsub double %13, %15
  %72 = insertelement <2 x double> %55, double %5, i32 1
  %73 = insertelement <2 x double> poison, double %23, i32 0
  %74 = insertelement <2 x double> %73, double %7, i32 1
  %75 = fsub <2 x double> %72, %74
  %76 = insertelement <2 x double> %61, double %1, i32 1
  %77 = fsub <2 x double> %34, %76
  %78 = insertelement <2 x double> poison, double %12, i32 0
  %79 = insertelement <2 x double> %78, double %9, i32 1
  %80 = fsub <2 x double> %39, %79
  %81 = insertelement <2 x double> %66, double %17, i32 1
  %82 = fsub <2 x double> %44, %81
  %83 = insertelement <2 x double> poison, double %2, i32 0
  %84 = insertelement <2 x double> %83, double %7, i32 1
  %85 = fsub <2 x double> %84, %47
  %86 = insertelement <2 x double> poison, double %10, i32 0
  %87 = insertelement <2 x double> %86, double %15, i32 1
  %88 = fsub <2 x double> %87, %52
  %89 = insertelement <2 x double> poison, double %18, i32 0
  %90 = insertelement <2 x double> %89, double %23, i32 1
  %91 = fsub <2 x double> %90, %56
  %92 = fadd double %65, %71
  %93 = fmul double %25, %64
  %shift = shufflevector <2 x double> %30, <2 x double> poison, <2 x i32> <i32 1, i32 undef>
  %94 = fmul <2 x double> %63, %shift
  %95 = extractelement <2 x double> %94, i32 0
  %96 = fsub double %93, %95
  %97 = fmul double %92, %96
  %98 = fadd <2 x double> %70, %75
  %99 = fmul <2 x double> %63, %30
  %100 = insertelement <2 x double> poison, double %25, i32 0
  %101 = shufflevector <2 x double> %100, <2 x double> %30, <2 x i32> <i32 0, i32 2>
  %102 = extractelement <2 x double> %63, i32 1
  %103 = insertelement <2 x double> poison, double %102, i32 0
  %104 = insertelement <2 x double> %103, double %64, i32 1
  %105 = fmul <2 x double> %101, %104
  %106 = fsub <2 x double> %99, %105
  %107 = fmul <2 x double> %106, %98
  %108 = extractelement <2 x double> %107, i32 1
  %109 = fadd double %108, %97
  %110 = extractelement <2 x double> %107, i32 0
  %111 = fadd double %110, %109
  %112 = fadd <2 x double> %77, %85
  %113 = fmul <2 x double> %40, %59
  %114 = fmul <2 x double> %54, %45
  %115 = fsub <2 x double> %113, %114
  %116 = fmul <2 x double> %112, %115
  %117 = fadd <2 x double> %80, %88
  %118 = fmul <2 x double> %50, %45
  %119 = fmul <2 x double> %35, %59
  %120 = fsub <2 x double> %118, %119
  %121 = fmul <2 x double> %117, %120
  %122 = fadd <2 x double> %116, %121
  %123 = fadd <2 x double> %82, %91
  %124 = fmul <2 x double> %35, %54
  %125 = fmul <2 x double> %50, %40
  %126 = fsub <2 x double> %124, %125
  %127 = fmul <2 x double> %126, %123
  %128 = fadd <2 x double> %127, %122
  %129 = extractelement <2 x double> %128, i32 1
  %130 = fadd double %111, %129
  %131 = extractelement <2 x double> %128, i32 0
  %132 = fadd double %131, %130
  %133 = fmul double %132, 0x3FB5555555555555
  ret double %133
}

; Function Attrs: mustprogress nofree noinline norecurse nosync nounwind readonly uwtable willreturn
define dso_local double @_Z14CalcElemVolumePKdS0_S0_(double* nocapture readonly %0, double* nocapture readonly %1, double* nocapture readonly %2) local_unnamed_addr #17 {
  %4 = load double, double* %0, align 8, !tbaa !10
  %5 = getelementptr inbounds double, double* %0, i64 1
  %6 = load double, double* %5, align 8, !tbaa !10
  %7 = getelementptr inbounds double, double* %0, i64 2
  %8 = load double, double* %7, align 8, !tbaa !10
  %9 = getelementptr inbounds double, double* %0, i64 3
  %10 = load double, double* %9, align 8, !tbaa !10
  %11 = getelementptr inbounds double, double* %0, i64 4
  %12 = load double, double* %11, align 8, !tbaa !10
  %13 = getelementptr inbounds double, double* %0, i64 5
  %14 = load double, double* %13, align 8, !tbaa !10
  %15 = getelementptr inbounds double, double* %0, i64 6
  %16 = load double, double* %15, align 8, !tbaa !10
  %17 = getelementptr inbounds double, double* %0, i64 7
  %18 = load double, double* %17, align 8, !tbaa !10
  %19 = load double, double* %1, align 8, !tbaa !10
  %20 = getelementptr inbounds double, double* %1, i64 1
  %21 = load double, double* %20, align 8, !tbaa !10
  %22 = getelementptr inbounds double, double* %1, i64 2
  %23 = load double, double* %22, align 8, !tbaa !10
  %24 = getelementptr inbounds double, double* %1, i64 3
  %25 = load double, double* %24, align 8, !tbaa !10
  %26 = getelementptr inbounds double, double* %1, i64 4
  %27 = load double, double* %26, align 8, !tbaa !10
  %28 = getelementptr inbounds double, double* %1, i64 5
  %29 = load double, double* %28, align 8, !tbaa !10
  %30 = getelementptr inbounds double, double* %1, i64 6
  %31 = load double, double* %30, align 8, !tbaa !10
  %32 = getelementptr inbounds double, double* %1, i64 7
  %33 = load double, double* %32, align 8, !tbaa !10
  %34 = load double, double* %2, align 8, !tbaa !10
  %35 = getelementptr inbounds double, double* %2, i64 1
  %36 = load double, double* %35, align 8, !tbaa !10
  %37 = getelementptr inbounds double, double* %2, i64 2
  %38 = load double, double* %37, align 8, !tbaa !10
  %39 = getelementptr inbounds double, double* %2, i64 3
  %40 = load double, double* %39, align 8, !tbaa !10
  %41 = getelementptr inbounds double, double* %2, i64 4
  %42 = load double, double* %41, align 8, !tbaa !10
  %43 = getelementptr inbounds double, double* %2, i64 5
  %44 = load double, double* %43, align 8, !tbaa !10
  %45 = getelementptr inbounds double, double* %2, i64 6
  %46 = load double, double* %45, align 8, !tbaa !10
  %47 = getelementptr inbounds double, double* %2, i64 7
  %48 = load double, double* %47, align 8, !tbaa !10
  %49 = tail call double @_Z14CalcElemVolumedddddddddddddddddddddddd(double %4, double %6, double %8, double %10, double %12, double %14, double %16, double %18, double %19, double %21, double %23, double %25, double %27, double %29, double %31, double %33, double %34, double %36, double %38, double %40, double %42, double %44, double %46, double %48)
  ret double %49
}

; Function Attrs: mustprogress nofree noinline norecurse nosync nounwind readnone uwtable willreturn
define dso_local double @_Z8AreaFacedddddddddddd(double %0, double %1, double %2, double %3, double %4, double %5, double %6, double %7, double %8, double %9, double %10, double %11) local_unnamed_addr #16 {
  %13 = fsub double %2, %0
  %14 = fsub double %3, %1
  %15 = fsub double %13, %14
  %16 = fsub double %6, %4
  %17 = fsub double %7, %5
  %18 = fsub double %16, %17
  %19 = fsub double %10, %8
  %20 = fsub double %11, %9
  %21 = fsub double %19, %20
  %22 = fadd double %13, %14
  %23 = fadd double %16, %17
  %24 = fadd double %19, %20
  %25 = fmul double %22, %22
  %26 = fmul double %23, %23
  %27 = fadd double %25, %26
  %28 = fmul double %24, %24
  %29 = fadd double %27, %28
  %30 = insertelement <2 x double> poison, double %15, i32 0
  %31 = shufflevector <2 x double> %30, <2 x double> poison, <2 x i32> zeroinitializer
  %32 = insertelement <2 x double> %30, double %22, i32 1
  %33 = fmul <2 x double> %31, %32
  %34 = insertelement <2 x double> poison, double %18, i32 0
  %35 = shufflevector <2 x double> %34, <2 x double> poison, <2 x i32> zeroinitializer
  %36 = insertelement <2 x double> %34, double %23, i32 1
  %37 = fmul <2 x double> %35, %36
  %38 = fadd <2 x double> %33, %37
  %39 = insertelement <2 x double> poison, double %21, i32 0
  %40 = shufflevector <2 x double> %39, <2 x double> poison, <2 x i32> zeroinitializer
  %41 = insertelement <2 x double> %39, double %24, i32 1
  %42 = fmul <2 x double> %40, %41
  %43 = fadd <2 x double> %38, %42
  %44 = insertelement <2 x double> %43, double %29, i32 0
  %45 = fmul <2 x double> %43, %44
  %46 = shufflevector <2 x double> %45, <2 x double> poison, <2 x i32> <i32 1, i32 undef>
  %47 = fsub <2 x double> %45, %46
  %48 = extractelement <2 x double> %47, i32 0
  ret double %48
}

; Function Attrs: mustprogress nofree noinline nounwind uwtable willreturn
define dso_local double @_Z28CalcElemCharacteristicLengthPKdS0_S0_d(double* nocapture readonly %0, double* nocapture readonly %1, double* nocapture readonly %2, double %3) local_unnamed_addr #18 {
  %5 = load double, double* %0, align 8, !tbaa !10
  %6 = getelementptr inbounds double, double* %0, i64 1
  %7 = load double, double* %6, align 8, !tbaa !10
  %8 = getelementptr inbounds double, double* %0, i64 2
  %9 = load double, double* %8, align 8, !tbaa !10
  %10 = getelementptr inbounds double, double* %0, i64 3
  %11 = load double, double* %10, align 8, !tbaa !10
  %12 = load double, double* %1, align 8, !tbaa !10
  %13 = getelementptr inbounds double, double* %1, i64 1
  %14 = load double, double* %13, align 8, !tbaa !10
  %15 = getelementptr inbounds double, double* %1, i64 2
  %16 = load double, double* %15, align 8, !tbaa !10
  %17 = getelementptr inbounds double, double* %1, i64 3
  %18 = load double, double* %17, align 8, !tbaa !10
  %19 = load double, double* %2, align 8, !tbaa !10
  %20 = getelementptr inbounds double, double* %2, i64 1
  %21 = load double, double* %20, align 8, !tbaa !10
  %22 = getelementptr inbounds double, double* %2, i64 2
  %23 = load double, double* %22, align 8, !tbaa !10
  %24 = getelementptr inbounds double, double* %2, i64 3
  %25 = load double, double* %24, align 8, !tbaa !10
  %26 = tail call double @_Z8AreaFacedddddddddddd(double %5, double %7, double %9, double %11, double %12, double %14, double %16, double %18, double %19, double %21, double %23, double %25)
  %27 = fcmp olt double %26, 0.000000e+00
  %28 = select i1 %27, double 0.000000e+00, double %26
  %29 = getelementptr inbounds double, double* %0, i64 4
  %30 = load double, double* %29, align 8, !tbaa !10
  %31 = getelementptr inbounds double, double* %0, i64 5
  %32 = load double, double* %31, align 8, !tbaa !10
  %33 = getelementptr inbounds double, double* %0, i64 6
  %34 = load double, double* %33, align 8, !tbaa !10
  %35 = getelementptr inbounds double, double* %0, i64 7
  %36 = load double, double* %35, align 8, !tbaa !10
  %37 = getelementptr inbounds double, double* %1, i64 4
  %38 = load double, double* %37, align 8, !tbaa !10
  %39 = getelementptr inbounds double, double* %1, i64 5
  %40 = load double, double* %39, align 8, !tbaa !10
  %41 = getelementptr inbounds double, double* %1, i64 6
  %42 = load double, double* %41, align 8, !tbaa !10
  %43 = getelementptr inbounds double, double* %1, i64 7
  %44 = load double, double* %43, align 8, !tbaa !10
  %45 = getelementptr inbounds double, double* %2, i64 4
  %46 = load double, double* %45, align 8, !tbaa !10
  %47 = getelementptr inbounds double, double* %2, i64 5
  %48 = load double, double* %47, align 8, !tbaa !10
  %49 = getelementptr inbounds double, double* %2, i64 6
  %50 = load double, double* %49, align 8, !tbaa !10
  %51 = getelementptr inbounds double, double* %2, i64 7
  %52 = load double, double* %51, align 8, !tbaa !10
  %53 = tail call double @_Z8AreaFacedddddddddddd(double %30, double %32, double %34, double %36, double %38, double %40, double %42, double %44, double %46, double %48, double %50, double %52)
  %54 = fcmp olt double %53, %28
  %55 = select i1 %54, double %28, double %53
  %56 = tail call double @_Z8AreaFacedddddddddddd(double %5, double %7, double %32, double %30, double %12, double %14, double %40, double %38, double %19, double %21, double %48, double %46)
  %57 = fcmp olt double %56, %55
  %58 = select i1 %57, double %55, double %56
  %59 = tail call double @_Z8AreaFacedddddddddddd(double %7, double %9, double %34, double %32, double %14, double %16, double %42, double %40, double %21, double %23, double %50, double %48)
  %60 = fcmp olt double %59, %58
  %61 = select i1 %60, double %58, double %59
  %62 = tail call double @_Z8AreaFacedddddddddddd(double %9, double %11, double %36, double %34, double %16, double %18, double %44, double %42, double %23, double %25, double %52, double %50)
  %63 = fcmp olt double %62, %61
  %64 = select i1 %63, double %61, double %62
  %65 = tail call double @_Z8AreaFacedddddddddddd(double %11, double %5, double %30, double %36, double %18, double %12, double %38, double %44, double %25, double %19, double %46, double %52)
  %66 = fcmp olt double %65, %64
  %67 = select i1 %66, double %64, double %65
  %68 = fmul double %3, 4.000000e+00
  %69 = tail call double @sqrt(double %67) #2
  %70 = fdiv double %68, %69
  ret double %70
}

; Function Attrs: mustprogress nofree nounwind willreturn
declare dso_local double @sqrt(double) local_unnamed_addr #19

; Function Attrs: mustprogress nofree noinline norecurse nosync nounwind uwtable willreturn
define dso_local void @_Z25CalcElemVelocityGrandientPKdS0_S0_PA8_S_dPd(double* nocapture readonly %0, double* nocapture readonly %1, double* nocapture readonly %2, [8 x double]* nocapture readonly %3, double %4, double* nocapture %5) local_unnamed_addr #5 {
  %7 = fdiv double 1.000000e+00, %4
  %8 = getelementptr inbounds [8 x double], [8 x double]* %3, i64 0, i64 0
  %9 = getelementptr inbounds [8 x double], [8 x double]* %3, i64 1, i64 0
  %10 = getelementptr inbounds [8 x double], [8 x double]* %3, i64 2, i64 0
  %11 = load double, double* %8, align 8, !tbaa !10
  %12 = load double, double* %0, align 8, !tbaa !10
  %13 = getelementptr inbounds double, double* %0, i64 6
  %14 = load double, double* %13, align 8, !tbaa !10
  %15 = fsub double %12, %14
  %16 = fmul double %11, %15
  %17 = getelementptr inbounds [8 x double], [8 x double]* %3, i64 0, i64 1
  %18 = load double, double* %17, align 8, !tbaa !10
  %19 = getelementptr inbounds double, double* %0, i64 1
  %20 = load double, double* %19, align 8, !tbaa !10
  %21 = getelementptr inbounds double, double* %0, i64 7
  %22 = load double, double* %21, align 8, !tbaa !10
  %23 = fsub double %20, %22
  %24 = fmul double %18, %23
  %25 = fadd double %16, %24
  %26 = getelementptr inbounds [8 x double], [8 x double]* %3, i64 0, i64 2
  %27 = load double, double* %26, align 8, !tbaa !10
  %28 = getelementptr inbounds double, double* %0, i64 2
  %29 = load double, double* %28, align 8, !tbaa !10
  %30 = getelementptr inbounds double, double* %0, i64 4
  %31 = load double, double* %30, align 8, !tbaa !10
  %32 = fsub double %29, %31
  %33 = fmul double %27, %32
  %34 = fadd double %25, %33
  %35 = getelementptr inbounds [8 x double], [8 x double]* %3, i64 0, i64 3
  %36 = load double, double* %35, align 8, !tbaa !10
  %37 = getelementptr inbounds double, double* %0, i64 3
  %38 = load double, double* %37, align 8, !tbaa !10
  %39 = getelementptr inbounds double, double* %0, i64 5
  %40 = load double, double* %39, align 8, !tbaa !10
  %41 = fsub double %38, %40
  %42 = fmul double %36, %41
  %43 = fadd double %34, %42
  %44 = fmul double %7, %43
  store double %44, double* %5, align 8, !tbaa !10
  %45 = load double, double* %9, align 8, !tbaa !10
  %46 = load double, double* %1, align 8, !tbaa !10
  %47 = getelementptr inbounds double, double* %1, i64 6
  %48 = load double, double* %47, align 8, !tbaa !10
  %49 = fsub double %46, %48
  %50 = fmul double %45, %49
  %51 = getelementptr inbounds [8 x double], [8 x double]* %3, i64 1, i64 1
  %52 = load double, double* %51, align 8, !tbaa !10
  %53 = getelementptr inbounds double, double* %1, i64 1
  %54 = load double, double* %53, align 8, !tbaa !10
  %55 = getelementptr inbounds double, double* %1, i64 7
  %56 = load double, double* %55, align 8, !tbaa !10
  %57 = fsub double %54, %56
  %58 = fmul double %52, %57
  %59 = fadd double %50, %58
  %60 = getelementptr inbounds [8 x double], [8 x double]* %3, i64 1, i64 2
  %61 = load double, double* %60, align 8, !tbaa !10
  %62 = getelementptr inbounds double, double* %1, i64 2
  %63 = load double, double* %62, align 8, !tbaa !10
  %64 = getelementptr inbounds double, double* %1, i64 4
  %65 = load double, double* %64, align 8, !tbaa !10
  %66 = fsub double %63, %65
  %67 = fmul double %61, %66
  %68 = fadd double %59, %67
  %69 = getelementptr inbounds [8 x double], [8 x double]* %3, i64 1, i64 3
  %70 = load double, double* %69, align 8, !tbaa !10
  %71 = getelementptr inbounds double, double* %1, i64 3
  %72 = load double, double* %71, align 8, !tbaa !10
  %73 = getelementptr inbounds double, double* %1, i64 5
  %74 = load double, double* %73, align 8, !tbaa !10
  %75 = fsub double %72, %74
  %76 = fmul double %70, %75
  %77 = fadd double %68, %76
  %78 = fmul double %7, %77
  %79 = getelementptr inbounds double, double* %5, i64 1
  store double %78, double* %79, align 8, !tbaa !10
  %80 = load double, double* %10, align 8, !tbaa !10
  %81 = load double, double* %2, align 8, !tbaa !10
  %82 = getelementptr inbounds double, double* %2, i64 6
  %83 = load double, double* %82, align 8, !tbaa !10
  %84 = fsub double %81, %83
  %85 = fmul double %80, %84
  %86 = getelementptr inbounds [8 x double], [8 x double]* %3, i64 2, i64 1
  %87 = load double, double* %86, align 8, !tbaa !10
  %88 = getelementptr inbounds double, double* %2, i64 1
  %89 = load double, double* %88, align 8, !tbaa !10
  %90 = getelementptr inbounds double, double* %2, i64 7
  %91 = load double, double* %90, align 8, !tbaa !10
  %92 = fsub double %89, %91
  %93 = fmul double %87, %92
  %94 = fadd double %85, %93
  %95 = getelementptr inbounds [8 x double], [8 x double]* %3, i64 2, i64 2
  %96 = load double, double* %95, align 8, !tbaa !10
  %97 = getelementptr inbounds double, double* %2, i64 2
  %98 = load double, double* %97, align 8, !tbaa !10
  %99 = getelementptr inbounds double, double* %2, i64 4
  %100 = load double, double* %99, align 8, !tbaa !10
  %101 = fsub double %98, %100
  %102 = fmul double %96, %101
  %103 = fadd double %94, %102
  %104 = getelementptr inbounds [8 x double], [8 x double]* %3, i64 2, i64 3
  %105 = load double, double* %104, align 8, !tbaa !10
  %106 = getelementptr inbounds double, double* %2, i64 3
  %107 = load double, double* %106, align 8, !tbaa !10
  %108 = getelementptr inbounds double, double* %2, i64 5
  %109 = load double, double* %108, align 8, !tbaa !10
  %110 = fsub double %107, %109
  %111 = fmul double %105, %110
  %112 = fadd double %103, %111
  %113 = fmul double %7, %112
  %114 = getelementptr inbounds double, double* %5, i64 2
  store double %113, double* %114, align 8, !tbaa !10
  %115 = load double, double* %8, align 8, !tbaa !10
  %116 = load double, double* %1, align 8, !tbaa !10
  %117 = load double, double* %47, align 8, !tbaa !10
  %118 = load double, double* %19, align 8, !tbaa !10
  %119 = load double, double* %21, align 8, !tbaa !10
  %120 = insertelement <2 x double> poison, double %116, i32 0
  %121 = insertelement <2 x double> %120, double %118, i32 1
  %122 = insertelement <2 x double> poison, double %117, i32 0
  %123 = insertelement <2 x double> %122, double %119, i32 1
  %124 = fsub <2 x double> %121, %123
  %125 = extractelement <2 x double> %124, i32 0
  %126 = fmul double %115, %125
  %127 = load double, double* %17, align 8, !tbaa !10
  %128 = load double, double* %53, align 8, !tbaa !10
  %129 = load double, double* %55, align 8, !tbaa !10
  %130 = load double, double* %0, align 8, !tbaa !10
  %131 = load double, double* %13, align 8, !tbaa !10
  %132 = insertelement <2 x double> poison, double %128, i32 0
  %133 = insertelement <2 x double> %132, double %130, i32 1
  %134 = insertelement <2 x double> poison, double %129, i32 0
  %135 = insertelement <2 x double> %134, double %131, i32 1
  %136 = fsub <2 x double> %133, %135
  %137 = extractelement <2 x double> %136, i32 0
  %138 = fmul double %127, %137
  %139 = fadd double %126, %138
  %140 = load double, double* %26, align 8, !tbaa !10
  %141 = load double, double* %62, align 8, !tbaa !10
  %142 = load double, double* %64, align 8, !tbaa !10
  %143 = load double, double* %28, align 8, !tbaa !10
  %144 = load double, double* %30, align 8, !tbaa !10
  %145 = insertelement <2 x double> poison, double %141, i32 0
  %146 = insertelement <2 x double> %145, double %143, i32 1
  %147 = insertelement <2 x double> poison, double %142, i32 0
  %148 = insertelement <2 x double> %147, double %144, i32 1
  %149 = fsub <2 x double> %146, %148
  %150 = extractelement <2 x double> %149, i32 0
  %151 = fmul double %140, %150
  %152 = fadd double %139, %151
  %153 = load double, double* %35, align 8, !tbaa !10
  %154 = load double, double* %71, align 8, !tbaa !10
  %155 = load double, double* %73, align 8, !tbaa !10
  %156 = load double, double* %37, align 8, !tbaa !10
  %157 = load double, double* %39, align 8, !tbaa !10
  %158 = insertelement <2 x double> poison, double %154, i32 0
  %159 = insertelement <2 x double> %158, double %156, i32 1
  %160 = insertelement <2 x double> poison, double %155, i32 0
  %161 = insertelement <2 x double> %160, double %157, i32 1
  %162 = fsub <2 x double> %159, %161
  %163 = extractelement <2 x double> %162, i32 0
  %164 = fmul double %153, %163
  %165 = fadd double %152, %164
  %166 = fmul double %7, %165
  %167 = load double, double* %9, align 8, !tbaa !10
  %168 = extractelement <2 x double> %136, i32 1
  %169 = fmul double %168, %167
  %170 = load double, double* %51, align 8, !tbaa !10
  %171 = extractelement <2 x double> %124, i32 1
  %172 = fmul double %171, %170
  %173 = fadd double %169, %172
  %174 = load double, double* %60, align 8, !tbaa !10
  %175 = extractelement <2 x double> %149, i32 1
  %176 = fmul double %175, %174
  %177 = fadd double %173, %176
  %178 = load double, double* %69, align 8, !tbaa !10
  %179 = extractelement <2 x double> %162, i32 1
  %180 = fmul double %179, %178
  %181 = fadd double %177, %180
  %182 = fmul double %7, %181
  %183 = load double, double* %2, align 8, !tbaa !10
  %184 = load double, double* %82, align 8, !tbaa !10
  %185 = fsub double %183, %184
  %186 = load double, double* %88, align 8, !tbaa !10
  %187 = load double, double* %90, align 8, !tbaa !10
  %188 = fsub double %186, %187
  %189 = load double, double* %97, align 8, !tbaa !10
  %190 = load double, double* %99, align 8, !tbaa !10
  %191 = fsub double %189, %190
  %192 = load double, double* %106, align 8, !tbaa !10
  %193 = load double, double* %108, align 8, !tbaa !10
  %194 = fsub double %192, %193
  %195 = bitcast double* %10 to <2 x double>*
  %196 = load <2 x double>, <2 x double>* %195, align 8, !tbaa !10
  %197 = load double, double* %95, align 8, !tbaa !10
  %198 = load double, double* %104, align 8, !tbaa !10
  %199 = insertelement <2 x double> poison, double %167, i32 0
  %200 = insertelement <2 x double> %199, double %115, i32 1
  %201 = insertelement <2 x double> poison, double %185, i32 0
  %202 = shufflevector <2 x double> %201, <2 x double> poison, <2 x i32> zeroinitializer
  %203 = fmul <2 x double> %200, %202
  %204 = insertelement <2 x double> poison, double %170, i32 0
  %205 = insertelement <2 x double> %204, double %127, i32 1
  %206 = insertelement <2 x double> poison, double %188, i32 0
  %207 = shufflevector <2 x double> %206, <2 x double> poison, <2 x i32> zeroinitializer
  %208 = fmul <2 x double> %205, %207
  %209 = fadd <2 x double> %203, %208
  %210 = insertelement <2 x double> poison, double %174, i32 0
  %211 = insertelement <2 x double> %210, double %140, i32 1
  %212 = insertelement <2 x double> poison, double %191, i32 0
  %213 = shufflevector <2 x double> %212, <2 x double> poison, <2 x i32> zeroinitializer
  %214 = fmul <2 x double> %211, %213
  %215 = fadd <2 x double> %209, %214
  %216 = insertelement <2 x double> poison, double %178, i32 0
  %217 = insertelement <2 x double> %216, double %153, i32 1
  %218 = insertelement <2 x double> poison, double %194, i32 0
  %219 = shufflevector <2 x double> %218, <2 x double> poison, <2 x i32> zeroinitializer
  %220 = fmul <2 x double> %217, %219
  %221 = fadd <2 x double> %215, %220
  %222 = insertelement <2 x double> poison, double %7, i32 0
  %223 = shufflevector <2 x double> %222, <2 x double> poison, <2 x i32> zeroinitializer
  %224 = fmul <2 x double> %223, %221
  %225 = fmul <2 x double> %124, %196
  %226 = shufflevector <2 x double> %196, <2 x double> undef, <2 x i32> <i32 1, i32 0>
  %227 = fmul <2 x double> %136, %226
  %228 = fadd <2 x double> %225, %227
  %229 = insertelement <2 x double> poison, double %197, i32 0
  %230 = shufflevector <2 x double> %229, <2 x double> poison, <2 x i32> zeroinitializer
  %231 = fmul <2 x double> %149, %230
  %232 = fadd <2 x double> %228, %231
  %233 = insertelement <2 x double> poison, double %198, i32 0
  %234 = shufflevector <2 x double> %233, <2 x double> poison, <2 x i32> zeroinitializer
  %235 = fmul <2 x double> %162, %234
  %236 = fadd <2 x double> %232, %235
  %237 = fmul <2 x double> %223, %236
  %238 = fadd double %166, %182
  %239 = fmul double %238, 5.000000e-01
  %240 = getelementptr inbounds double, double* %5, i64 5
  store double %239, double* %240, align 8, !tbaa !10
  %241 = fadd <2 x double> %224, %237
  %242 = fmul <2 x double> %241, <double 5.000000e-01, double 5.000000e-01>
  %243 = getelementptr inbounds double, double* %5, i64 3
  %244 = bitcast double* %243 to <2 x double>*
  store <2 x double> %242, <2 x double>* %244, align 8, !tbaa !10
  ret void
}

; Function Attrs: mustprogress nofree noinline nounwind uwtable
define dso_local void @_Z22CalcKinematicsForElemsid(i32 %0, double %1) local_unnamed_addr #20 {
  %3 = alloca [3 x [8 x double]], align 16
  %4 = alloca [6 x double], align 16
  %5 = alloca [8 x double], align 16
  %6 = alloca [8 x double], align 16
  %7 = alloca [8 x double], align 16
  %8 = alloca [8 x double], align 16
  %9 = alloca [8 x double], align 16
  %10 = alloca [8 x double], align 16
  %11 = alloca double, align 8
  %12 = bitcast [3 x [8 x double]]* %3 to i8*
  call void @llvm.lifetime.start.p0i8(i64 192, i8* nonnull %12) #2
  %13 = bitcast [6 x double]* %4 to i8*
  call void @llvm.lifetime.start.p0i8(i64 48, i8* nonnull %13) #2
  %14 = bitcast [8 x double]* %5 to i8*
  call void @llvm.lifetime.start.p0i8(i64 64, i8* nonnull %14) #2
  %15 = bitcast [8 x double]* %6 to i8*
  call void @llvm.lifetime.start.p0i8(i64 64, i8* nonnull %15) #2
  %16 = bitcast [8 x double]* %7 to i8*
  call void @llvm.lifetime.start.p0i8(i64 64, i8* nonnull %16) #2
  %17 = bitcast [8 x double]* %8 to i8*
  call void @llvm.lifetime.start.p0i8(i64 64, i8* nonnull %17) #2
  %18 = bitcast [8 x double]* %9 to i8*
  call void @llvm.lifetime.start.p0i8(i64 64, i8* nonnull %18) #2
  %19 = bitcast [8 x double]* %10 to i8*
  call void @llvm.lifetime.start.p0i8(i64 64, i8* nonnull %19) #2
  %20 = bitcast double* %11 to i8*
  call void @llvm.lifetime.start.p0i8(i64 8, i8* nonnull %20) #2
  store double 0.000000e+00, double* %11, align 8, !tbaa !10
  %21 = getelementptr inbounds [8 x double], [8 x double]* %5, i64 0, i64 0
  %22 = getelementptr inbounds [8 x double], [8 x double]* %6, i64 0, i64 0
  %23 = getelementptr inbounds [8 x double], [8 x double]* %7, i64 0, i64 0
  %24 = getelementptr inbounds [3 x [8 x double]], [3 x [8 x double]]* %3, i64 0, i64 0
  %25 = getelementptr inbounds [8 x double], [8 x double]* %8, i64 0, i64 0
  %26 = getelementptr inbounds [8 x double], [8 x double]* %9, i64 0, i64 0
  %27 = getelementptr inbounds [8 x double], [8 x double]* %10, i64 0, i64 0
  %28 = getelementptr inbounds [6 x double], [6 x double]* %4, i64 0, i64 0
  %29 = getelementptr inbounds [6 x double], [6 x double]* %4, i64 0, i64 1
  %30 = getelementptr inbounds [6 x double], [6 x double]* %4, i64 0, i64 2
  %31 = icmp sgt i32 %0, 0
  br i1 %31, label %32, label %.loopexit

32:                                               ; preds = %2
  %33 = fmul double %1, 5.000000e-01
  %34 = zext i32 %0 to i64
  %35 = insertelement <2 x double> poison, double %33, i32 0
  %36 = shufflevector <2 x double> %35, <2 x double> poison, <2 x i32> zeroinitializer
  br label %37

.loopexit:                                        ; preds = %124, %2
  call void @llvm.lifetime.end.p0i8(i64 8, i8* nonnull %20) #2
  call void @llvm.lifetime.end.p0i8(i64 64, i8* nonnull %19) #2
  call void @llvm.lifetime.end.p0i8(i64 64, i8* nonnull %18) #2
  call void @llvm.lifetime.end.p0i8(i64 64, i8* nonnull %17) #2
  call void @llvm.lifetime.end.p0i8(i64 64, i8* nonnull %16) #2
  call void @llvm.lifetime.end.p0i8(i64 64, i8* nonnull %15) #2
  call void @llvm.lifetime.end.p0i8(i64 64, i8* nonnull %14) #2
  call void @llvm.lifetime.end.p0i8(i64 48, i8* nonnull %13) #2
  call void @llvm.lifetime.end.p0i8(i64 192, i8* nonnull %12) #2
  ret void

37:                                               ; preds = %124, %32
  %38 = phi i64 [ 0, %32 ], [ %135, %124 ]
  %39 = shl nsw i64 %38, 3
  %40 = load i32*, i32** getelementptr inbounds (%struct.Mesh, %struct.Mesh* @mesh, i64 0, i32 17, i32 0, i32 0, i32 0, i32 0), align 8, !tbaa !8
  %41 = getelementptr inbounds i32, i32* %40, i64 %39
  %42 = load double*, double** getelementptr inbounds (%struct.Mesh, %struct.Mesh* @mesh, i64 0, i32 0, i32 0, i32 0, i32 0, i32 0), align 8, !tbaa !3
  %43 = load double*, double** getelementptr inbounds (%struct.Mesh, %struct.Mesh* @mesh, i64 0, i32 1, i32 0, i32 0, i32 0, i32 0), align 8, !tbaa !3
  %44 = load double*, double** getelementptr inbounds (%struct.Mesh, %struct.Mesh* @mesh, i64 0, i32 2, i32 0, i32 0, i32 0, i32 0), align 8, !tbaa !3
  br label %65

45:                                               ; preds = %65
  %46 = call double @_Z14CalcElemVolumePKdS0_S0_(double* nonnull %21, double* nonnull %22, double* nonnull %23)
  %47 = load double*, double** getelementptr inbounds (%struct.Mesh, %struct.Mesh* @mesh, i64 0, i32 40, i32 0, i32 0, i32 0, i32 0), align 8, !tbaa !3
  %48 = getelementptr inbounds double, double* %47, i64 %38
  %49 = load double, double* %48, align 8, !tbaa !10
  %50 = fdiv double %46, %49
  %51 = load double*, double** getelementptr inbounds (%struct.Mesh, %struct.Mesh* @mesh, i64 0, i32 41, i32 0, i32 0, i32 0, i32 0), align 8, !tbaa !3
  %52 = getelementptr inbounds double, double* %51, i64 %38
  store double %50, double* %52, align 8, !tbaa !10
  %53 = load double*, double** getelementptr inbounds (%struct.Mesh, %struct.Mesh* @mesh, i64 0, i32 39, i32 0, i32 0, i32 0, i32 0), align 8, !tbaa !3
  %54 = getelementptr inbounds double, double* %53, i64 %38
  %55 = load double, double* %54, align 8, !tbaa !10
  %56 = fsub double %50, %55
  %57 = load double*, double** getelementptr inbounds (%struct.Mesh, %struct.Mesh* @mesh, i64 0, i32 42, i32 0, i32 0, i32 0, i32 0), align 8, !tbaa !3
  %58 = getelementptr inbounds double, double* %57, i64 %38
  store double %56, double* %58, align 8, !tbaa !10
  %59 = call double @_Z28CalcElemCharacteristicLengthPKdS0_S0_d(double* nonnull %21, double* nonnull %22, double* nonnull %23, double %46)
  %60 = load double*, double** getelementptr inbounds (%struct.Mesh, %struct.Mesh* @mesh, i64 0, i32 44, i32 0, i32 0, i32 0, i32 0), align 8, !tbaa !3
  %61 = getelementptr inbounds double, double* %60, i64 %38
  store double %59, double* %61, align 8, !tbaa !10
  %62 = load double*, double** getelementptr inbounds (%struct.Mesh, %struct.Mesh* @mesh, i64 0, i32 3, i32 0, i32 0, i32 0, i32 0), align 8, !tbaa !3
  %63 = load double*, double** getelementptr inbounds (%struct.Mesh, %struct.Mesh* @mesh, i64 0, i32 4, i32 0, i32 0, i32 0, i32 0), align 8, !tbaa !3
  %64 = load double*, double** getelementptr inbounds (%struct.Mesh, %struct.Mesh* @mesh, i64 0, i32 5, i32 0, i32 0, i32 0, i32 0), align 8, !tbaa !3
  br label %81

65:                                               ; preds = %65, %37
  %66 = phi i64 [ 0, %37 ], [ %79, %65 ]
  %67 = getelementptr inbounds i32, i32* %41, i64 %66
  %68 = load i32, i32* %67, align 4, !tbaa !12
  %69 = sext i32 %68 to i64
  %70 = getelementptr inbounds double, double* %42, i64 %69
  %71 = load double, double* %70, align 8, !tbaa !10
  %72 = getelementptr inbounds [8 x double], [8 x double]* %5, i64 0, i64 %66
  store double %71, double* %72, align 8, !tbaa !10
  %73 = getelementptr inbounds double, double* %43, i64 %69
  %74 = load double, double* %73, align 8, !tbaa !10
  %75 = getelementptr inbounds [8 x double], [8 x double]* %6, i64 0, i64 %66
  store double %74, double* %75, align 8, !tbaa !10
  %76 = getelementptr inbounds double, double* %44, i64 %69
  %77 = load double, double* %76, align 8, !tbaa !10
  %78 = getelementptr inbounds [8 x double], [8 x double]* %7, i64 0, i64 %66
  store double %77, double* %78, align 8, !tbaa !10
  %79 = add nuw nsw i64 %66, 1
  %80 = icmp eq i64 %79, 8
  br i1 %80, label %45, label %65, !llvm.loop !42

81:                                               ; preds = %81, %45
  %82 = phi i64 [ 0, %45 ], [ %95, %81 ]
  %83 = getelementptr inbounds i32, i32* %41, i64 %82
  %84 = load i32, i32* %83, align 4, !tbaa !12
  %85 = sext i32 %84 to i64
  %86 = getelementptr inbounds double, double* %62, i64 %85
  %87 = load double, double* %86, align 8, !tbaa !10
  %88 = getelementptr inbounds [8 x double], [8 x double]* %8, i64 0, i64 %82
  store double %87, double* %88, align 8, !tbaa !10
  %89 = getelementptr inbounds double, double* %63, i64 %85
  %90 = load double, double* %89, align 8, !tbaa !10
  %91 = getelementptr inbounds [8 x double], [8 x double]* %9, i64 0, i64 %82
  store double %90, double* %91, align 8, !tbaa !10
  %92 = getelementptr inbounds double, double* %64, i64 %85
  %93 = load double, double* %92, align 8, !tbaa !10
  %94 = getelementptr inbounds [8 x double], [8 x double]* %10, i64 0, i64 %82
  store double %93, double* %94, align 8, !tbaa !10
  %95 = add nuw nsw i64 %82, 1
  %96 = icmp eq i64 %95, 8
  br i1 %96, label %.preheader, label %81, !llvm.loop !43

.preheader:                                       ; preds = %81, %.preheader
  %97 = phi i64 [ %122, %.preheader ], [ 0, %81 ]
  %98 = getelementptr inbounds [8 x double], [8 x double]* %8, i64 0, i64 %97
  %99 = bitcast double* %98 to <2 x double>*
  %100 = load <2 x double>, <2 x double>* %99, align 16, !tbaa !10
  %101 = fmul <2 x double> %36, %100
  %102 = getelementptr inbounds [8 x double], [8 x double]* %5, i64 0, i64 %97
  %103 = bitcast double* %102 to <2 x double>*
  %104 = load <2 x double>, <2 x double>* %103, align 16, !tbaa !10
  %105 = fsub <2 x double> %104, %101
  store <2 x double> %105, <2 x double>* %103, align 16, !tbaa !10
  %106 = getelementptr inbounds [8 x double], [8 x double]* %9, i64 0, i64 %97
  %107 = bitcast double* %106 to <2 x double>*
  %108 = load <2 x double>, <2 x double>* %107, align 16, !tbaa !10
  %109 = fmul <2 x double> %36, %108
  %110 = getelementptr inbounds [8 x double], [8 x double]* %6, i64 0, i64 %97
  %111 = bitcast double* %110 to <2 x double>*
  %112 = load <2 x double>, <2 x double>* %111, align 16, !tbaa !10
  %113 = fsub <2 x double> %112, %109
  store <2 x double> %113, <2 x double>* %111, align 16, !tbaa !10
  %114 = getelementptr inbounds [8 x double], [8 x double]* %10, i64 0, i64 %97
  %115 = bitcast double* %114 to <2 x double>*
  %116 = load <2 x double>, <2 x double>* %115, align 16, !tbaa !10
  %117 = fmul <2 x double> %36, %116
  %118 = getelementptr inbounds [8 x double], [8 x double]* %7, i64 0, i64 %97
  %119 = bitcast double* %118 to <2 x double>*
  %120 = load <2 x double>, <2 x double>* %119, align 16, !tbaa !10
  %121 = fsub <2 x double> %120, %117
  store <2 x double> %121, <2 x double>* %119, align 16, !tbaa !10
  %122 = add nuw nsw i64 %97, 2
  %123 = icmp eq i64 %122, 8
  br i1 %123, label %124, label %.preheader, !llvm.loop !44

124:                                              ; preds = %.preheader
  call void @_Z32CalcElemShapeFunctionDerivativesPKdS0_S0_PA8_dPd(double* nonnull %21, double* nonnull %22, double* nonnull %23, [8 x double]* nonnull %24, double* nonnull %11)
  %125 = load double, double* %11, align 8, !tbaa !10
  call void @_Z25CalcElemVelocityGrandientPKdS0_S0_PA8_S_dPd(double* nonnull %25, double* nonnull %26, double* nonnull %27, [8 x double]* nonnull %24, double %125, double* nonnull %28)
  %126 = load double, double* %28, align 16, !tbaa !10
  %127 = load double*, double** getelementptr inbounds (%struct.Mesh, %struct.Mesh* @mesh, i64 0, i32 25, i32 0, i32 0, i32 0, i32 0), align 8, !tbaa !3
  %128 = getelementptr inbounds double, double* %127, i64 %38
  store double %126, double* %128, align 8, !tbaa !10
  %129 = load double, double* %29, align 8, !tbaa !10
  %130 = load double*, double** getelementptr inbounds (%struct.Mesh, %struct.Mesh* @mesh, i64 0, i32 26, i32 0, i32 0, i32 0, i32 0), align 8, !tbaa !3
  %131 = getelementptr inbounds double, double* %130, i64 %38
  store double %129, double* %131, align 8, !tbaa !10
  %132 = load double, double* %30, align 16, !tbaa !10
  %133 = load double*, double** getelementptr inbounds (%struct.Mesh, %struct.Mesh* @mesh, i64 0, i32 27, i32 0, i32 0, i32 0, i32 0), align 8, !tbaa !3
  %134 = getelementptr inbounds double, double* %133, i64 %38
  store double %132, double* %134, align 8, !tbaa !10
  %135 = add nuw nsw i64 %38, 1
  %136 = icmp eq i64 %135, %34
  br i1 %136, label %.loopexit, label %37, !llvm.loop !45
}

; Function Attrs: mustprogress noinline nounwind uwtable
define dso_local void @_Z20CalcLagrangeElementsd(double %0) local_unnamed_addr #10 {
  %2 = load i32, i32* getelementptr inbounds (%struct.Mesh, %struct.Mesh* @mesh, i64 0, i32 79), align 8, !tbaa !12
  %3 = icmp sgt i32 %2, 0
  br i1 %3, label %4, label %.loopexit

4:                                                ; preds = %1
  tail call void @_Z22CalcKinematicsForElemsid(i32 %2, double %0)
  %5 = load double*, double** getelementptr inbounds (%struct.Mesh, %struct.Mesh* @mesh, i64 0, i32 25, i32 0, i32 0, i32 0, i32 0), align 8
  %6 = load double*, double** getelementptr inbounds (%struct.Mesh, %struct.Mesh* @mesh, i64 0, i32 26, i32 0, i32 0, i32 0, i32 0), align 8
  %7 = load double*, double** getelementptr inbounds (%struct.Mesh, %struct.Mesh* @mesh, i64 0, i32 27, i32 0, i32 0, i32 0, i32 0), align 8
  %8 = load double*, double** getelementptr inbounds (%struct.Mesh, %struct.Mesh* @mesh, i64 0, i32 43, i32 0, i32 0, i32 0, i32 0), align 8
  %9 = load double*, double** getelementptr inbounds (%struct.Mesh, %struct.Mesh* @mesh, i64 0, i32 41, i32 0, i32 0, i32 0, i32 0), align 8
  %10 = zext i32 %2 to i64
  br label %13

11:                                               ; preds = %13
  %12 = icmp eq i64 %34, %10
  br i1 %12, label %.loopexit, label %13, !llvm.loop !46

13:                                               ; preds = %11, %4
  %14 = phi i64 [ 0, %4 ], [ %34, %11 ]
  %15 = getelementptr inbounds double, double* %5, i64 %14
  %16 = load double, double* %15, align 8, !tbaa !10
  %17 = getelementptr inbounds double, double* %6, i64 %14
  %18 = load double, double* %17, align 8, !tbaa !10
  %19 = fadd double %16, %18
  %20 = getelementptr inbounds double, double* %7, i64 %14
  %21 = load double, double* %20, align 8, !tbaa !10
  %22 = fadd double %19, %21
  %23 = fdiv double %22, 3.000000e+00
  %24 = getelementptr inbounds double, double* %8, i64 %14
  store double %22, double* %24, align 8, !tbaa !10
  %25 = load double, double* %15, align 8, !tbaa !10
  %26 = fsub double %25, %23
  store double %26, double* %15, align 8, !tbaa !10
  %27 = load double, double* %17, align 8, !tbaa !10
  %28 = fsub double %27, %23
  store double %28, double* %17, align 8, !tbaa !10
  %29 = load double, double* %20, align 8, !tbaa !10
  %30 = fsub double %29, %23
  store double %30, double* %20, align 8, !tbaa !10
  %31 = getelementptr inbounds double, double* %9, i64 %14
  %32 = load double, double* %31, align 8, !tbaa !10
  %33 = fcmp ugt double %32, 0.000000e+00
  %34 = add nuw nsw i64 %14, 1
  br i1 %33, label %11, label %35

35:                                               ; preds = %13
  tail call void @exit(i32 -1) #32
  unreachable

.loopexit:                                        ; preds = %11, %1
  ret void
}

; Function Attrs: mustprogress nofree noinline nounwind uwtable
define dso_local void @_Z31CalcMonotonicQGradientsForElemsv() local_unnamed_addr #20 {
  %1 = load i32, i32* getelementptr inbounds (%struct.Mesh, %struct.Mesh* @mesh, i64 0, i32 79), align 8, !tbaa !12
  %2 = icmp sgt i32 %1, 0
  br i1 %2, label %3, label %.loopexit

3:                                                ; preds = %0
  %4 = zext i32 %1 to i64
  br label %5

.loopexit:                                        ; preds = %5, %0
  ret void

5:                                                ; preds = %5, %3
  %6 = phi i64 [ 0, %3 ], [ %369, %5 ]
  %7 = shl nsw i64 %6, 3
  %8 = load i32*, i32** getelementptr inbounds (%struct.Mesh, %struct.Mesh* @mesh, i64 0, i32 17, i32 0, i32 0, i32 0, i32 0), align 8, !tbaa !8
  %9 = getelementptr inbounds i32, i32* %8, i64 %7
  %10 = load i32, i32* %9, align 4, !tbaa !12
  %11 = getelementptr inbounds i32, i32* %9, i64 1
  %12 = load i32, i32* %11, align 4, !tbaa !12
  %13 = getelementptr inbounds i32, i32* %9, i64 2
  %14 = load i32, i32* %13, align 4, !tbaa !12
  %15 = getelementptr inbounds i32, i32* %9, i64 3
  %16 = load i32, i32* %15, align 4, !tbaa !12
  %17 = getelementptr inbounds i32, i32* %9, i64 4
  %18 = load i32, i32* %17, align 4, !tbaa !12
  %19 = getelementptr inbounds i32, i32* %9, i64 5
  %20 = load i32, i32* %19, align 4, !tbaa !12
  %21 = getelementptr inbounds i32, i32* %9, i64 6
  %22 = load i32, i32* %21, align 4, !tbaa !12
  %23 = getelementptr inbounds i32, i32* %9, i64 7
  %24 = load i32, i32* %23, align 4, !tbaa !12
  %25 = sext i32 %10 to i64
  %26 = load double*, double** getelementptr inbounds (%struct.Mesh, %struct.Mesh* @mesh, i64 0, i32 0, i32 0, i32 0, i32 0, i32 0), align 8, !tbaa !3
  %27 = getelementptr inbounds double, double* %26, i64 %25
  %28 = load double, double* %27, align 8, !tbaa !10
  %29 = sext i32 %12 to i64
  %30 = getelementptr inbounds double, double* %26, i64 %29
  %31 = load double, double* %30, align 8, !tbaa !10
  %32 = sext i32 %14 to i64
  %33 = getelementptr inbounds double, double* %26, i64 %32
  %34 = load double, double* %33, align 8, !tbaa !10
  %35 = sext i32 %16 to i64
  %36 = getelementptr inbounds double, double* %26, i64 %35
  %37 = load double, double* %36, align 8, !tbaa !10
  %38 = sext i32 %18 to i64
  %39 = getelementptr inbounds double, double* %26, i64 %38
  %40 = load double, double* %39, align 8, !tbaa !10
  %41 = sext i32 %20 to i64
  %42 = getelementptr inbounds double, double* %26, i64 %41
  %43 = load double, double* %42, align 8, !tbaa !10
  %44 = sext i32 %22 to i64
  %45 = getelementptr inbounds double, double* %26, i64 %44
  %46 = load double, double* %45, align 8, !tbaa !10
  %47 = sext i32 %24 to i64
  %48 = getelementptr inbounds double, double* %26, i64 %47
  %49 = load double, double* %48, align 8, !tbaa !10
  %50 = load double*, double** getelementptr inbounds (%struct.Mesh, %struct.Mesh* @mesh, i64 0, i32 1, i32 0, i32 0, i32 0, i32 0), align 8, !tbaa !3
  %51 = getelementptr inbounds double, double* %50, i64 %25
  %52 = load double, double* %51, align 8, !tbaa !10
  %53 = getelementptr inbounds double, double* %50, i64 %29
  %54 = load double, double* %53, align 8, !tbaa !10
  %55 = getelementptr inbounds double, double* %50, i64 %32
  %56 = load double, double* %55, align 8, !tbaa !10
  %57 = getelementptr inbounds double, double* %50, i64 %35
  %58 = load double, double* %57, align 8, !tbaa !10
  %59 = getelementptr inbounds double, double* %50, i64 %38
  %60 = load double, double* %59, align 8, !tbaa !10
  %61 = getelementptr inbounds double, double* %50, i64 %41
  %62 = load double, double* %61, align 8, !tbaa !10
  %63 = getelementptr inbounds double, double* %50, i64 %44
  %64 = load double, double* %63, align 8, !tbaa !10
  %65 = getelementptr inbounds double, double* %50, i64 %47
  %66 = load double, double* %65, align 8, !tbaa !10
  %67 = load double*, double** getelementptr inbounds (%struct.Mesh, %struct.Mesh* @mesh, i64 0, i32 2, i32 0, i32 0, i32 0, i32 0), align 8, !tbaa !3
  %68 = getelementptr inbounds double, double* %67, i64 %25
  %69 = load double, double* %68, align 8, !tbaa !10
  %70 = getelementptr inbounds double, double* %67, i64 %29
  %71 = load double, double* %70, align 8, !tbaa !10
  %72 = getelementptr inbounds double, double* %67, i64 %32
  %73 = load double, double* %72, align 8, !tbaa !10
  %74 = getelementptr inbounds double, double* %67, i64 %35
  %75 = load double, double* %74, align 8, !tbaa !10
  %76 = getelementptr inbounds double, double* %67, i64 %38
  %77 = load double, double* %76, align 8, !tbaa !10
  %78 = getelementptr inbounds double, double* %67, i64 %41
  %79 = load double, double* %78, align 8, !tbaa !10
  %80 = getelementptr inbounds double, double* %67, i64 %44
  %81 = load double, double* %80, align 8, !tbaa !10
  %82 = getelementptr inbounds double, double* %67, i64 %47
  %83 = load double, double* %82, align 8, !tbaa !10
  %84 = load double*, double** getelementptr inbounds (%struct.Mesh, %struct.Mesh* @mesh, i64 0, i32 3, i32 0, i32 0, i32 0, i32 0), align 8, !tbaa !3
  %85 = getelementptr inbounds double, double* %84, i64 %25
  %86 = load double, double* %85, align 8, !tbaa !10
  %87 = getelementptr inbounds double, double* %84, i64 %29
  %88 = load double, double* %87, align 8, !tbaa !10
  %89 = getelementptr inbounds double, double* %84, i64 %32
  %90 = load double, double* %89, align 8, !tbaa !10
  %91 = getelementptr inbounds double, double* %84, i64 %35
  %92 = load double, double* %91, align 8, !tbaa !10
  %93 = getelementptr inbounds double, double* %84, i64 %38
  %94 = load double, double* %93, align 8, !tbaa !10
  %95 = getelementptr inbounds double, double* %84, i64 %41
  %96 = load double, double* %95, align 8, !tbaa !10
  %97 = getelementptr inbounds double, double* %84, i64 %44
  %98 = load double, double* %97, align 8, !tbaa !10
  %99 = getelementptr inbounds double, double* %84, i64 %47
  %100 = load double, double* %99, align 8, !tbaa !10
  %101 = load double*, double** getelementptr inbounds (%struct.Mesh, %struct.Mesh* @mesh, i64 0, i32 4, i32 0, i32 0, i32 0, i32 0), align 8, !tbaa !3
  %102 = getelementptr inbounds double, double* %101, i64 %25
  %103 = load double, double* %102, align 8, !tbaa !10
  %104 = getelementptr inbounds double, double* %101, i64 %29
  %105 = load double, double* %104, align 8, !tbaa !10
  %106 = getelementptr inbounds double, double* %101, i64 %32
  %107 = load double, double* %106, align 8, !tbaa !10
  %108 = getelementptr inbounds double, double* %101, i64 %35
  %109 = load double, double* %108, align 8, !tbaa !10
  %110 = getelementptr inbounds double, double* %101, i64 %38
  %111 = load double, double* %110, align 8, !tbaa !10
  %112 = getelementptr inbounds double, double* %101, i64 %41
  %113 = load double, double* %112, align 8, !tbaa !10
  %114 = getelementptr inbounds double, double* %101, i64 %44
  %115 = load double, double* %114, align 8, !tbaa !10
  %116 = getelementptr inbounds double, double* %101, i64 %47
  %117 = load double, double* %116, align 8, !tbaa !10
  %118 = load double*, double** getelementptr inbounds (%struct.Mesh, %struct.Mesh* @mesh, i64 0, i32 5, i32 0, i32 0, i32 0, i32 0), align 8, !tbaa !3
  %119 = getelementptr inbounds double, double* %118, i64 %25
  %120 = load double, double* %119, align 8, !tbaa !10
  %121 = getelementptr inbounds double, double* %118, i64 %29
  %122 = load double, double* %121, align 8, !tbaa !10
  %123 = getelementptr inbounds double, double* %118, i64 %32
  %124 = load double, double* %123, align 8, !tbaa !10
  %125 = getelementptr inbounds double, double* %118, i64 %35
  %126 = load double, double* %125, align 8, !tbaa !10
  %127 = getelementptr inbounds double, double* %118, i64 %38
  %128 = load double, double* %127, align 8, !tbaa !10
  %129 = getelementptr inbounds double, double* %118, i64 %41
  %130 = load double, double* %129, align 8, !tbaa !10
  %131 = getelementptr inbounds double, double* %118, i64 %44
  %132 = load double, double* %131, align 8, !tbaa !10
  %133 = getelementptr inbounds double, double* %118, i64 %47
  %134 = load double, double* %133, align 8, !tbaa !10
  %135 = load double*, double** getelementptr inbounds (%struct.Mesh, %struct.Mesh* @mesh, i64 0, i32 40, i32 0, i32 0, i32 0, i32 0), align 8, !tbaa !3
  %136 = getelementptr inbounds double, double* %135, i64 %6
  %137 = load double, double* %136, align 8, !tbaa !10
  %138 = load double*, double** getelementptr inbounds (%struct.Mesh, %struct.Mesh* @mesh, i64 0, i32 41, i32 0, i32 0, i32 0, i32 0), align 8, !tbaa !3
  %139 = getelementptr inbounds double, double* %138, i64 %6
  %140 = load double, double* %139, align 8, !tbaa !10
  %141 = fmul double %137, %140
  %142 = fadd double %141, 0x38754484932D2E72
  %143 = fdiv double 1.000000e+00, %142
  %144 = fadd double %28, %31
