; ModuleID = '/home/hjiang/Resilism/experiments/LULESH_FITrace_1229/llfi/LULESH-llfi_index.ll'
source_filename = "llvm-link"
target datalayout = "e-m:e-p270:32:32-p271:32:32-p272:64:64-i64:64-f80:128-n8:16:32:64-S128"
target triple = "x86_64-unknown-linux-gnu"

%struct.Mesh = type { %"class.std::vector", %"class.std::vector", %"class.std::vector", %"class.std::vector", %"class.std::vector", %"class.std::vector", %"class.std::vector", %"class.std::vector", %"class.std::vector", %"class.std::vector", %"class.std::vector", %"class.std::vector", %"class.std::vector", %"class.std::vector.0", %"class.std::vector.0", %"class.std::vector.0", %"class.std::vector.0", %"class.std::vector.0", %"class.std::vector.0", %"class.std::vector.0", %"class.std::vector.0", %"class.std::vector.0", %"class.std::vector.0", %"class.std::vector.0", %"class.std::vector.0", %"class.std::vector", %"class.std::vector", %"class.std::vector", %"class.std::vector", %"class.std::vector", %"class.std::vector", %"class.std::vector", %"class.std::vector", %"class.std::vector", %"class.std::vector", %"class.std::vector", %"class.std::vector", %"class.std::vector", %"class.std::vector", %"class.std::vector", %"class.std::vector", %"class.std::vector", %"class.std::vector", %"class.std::vector", %"class.std::vector", %"class.std::vector", %"class.std::vector", double, double, double, double, double, double, double, double, double, double, double, double, double, double, double, double, double, double, double, double, double, double, double, double, double, double, double, double, i32, i32, i32, i32, i32, i32 }
%"class.std::vector.0" = type { %"struct.std::_Vector_base.1" }
%"struct.std::_Vector_base.1" = type { %"struct.std::_Vector_base<int, std::allocator<int>>::_Vector_impl" }
%"struct.std::_Vector_base<int, std::allocator<int>>::_Vector_impl" = type { %"struct.std::_Vector_base<int, std::allocator<int>>::_Vector_impl_data" }
%"struct.std::_Vector_base<int, std::allocator<int>>::_Vector_impl_data" = type { i32*, i32*, i32* }
%"class.std::vector" = type { %"struct.std::_Vector_base" }
%"struct.std::_Vector_base" = type { %"struct.std::_Vector_base<double, std::allocator<double>>::_Vector_impl" }
%"struct.std::_Vector_base<double, std::allocator<double>>::_Vector_impl" = type { %"struct.std::_Vector_base<double, std::allocator<double>>::_Vector_impl_data" }
%"struct.std::_Vector_base<double, std::allocator<double>>::_Vector_impl_data" = type { double*, double*, double* }
%struct.timeval = type { i64, i64 }
%struct._IO_FILE = type { i32, i8*, i8*, i8*, i8*, i8*, i8*, i8*, i8*, i8*, i8*, i8*, %struct._IO_marker*, %struct._IO_FILE*, i32, i32, i64, i16, i8, [1 x i8], i8*, i64, %struct._IO_codecvt*, %struct._IO_wide_data*, %struct._IO_FILE*, i8*, i64, i32, [20 x i8] }
%struct._IO_marker = type opaque
%struct._IO_codecvt = type opaque
%struct._IO_wide_data = type opaque

$_ZN4MeshD2Ev = comdat any

$_ZN4Mesh22AllocateElemPersistentEm = comdat any

$_ZN4Mesh21AllocateElemTemporaryEm = comdat any

$_ZN4Mesh23AllocateNodalPersistentEm = comdat any

$_ZN4Mesh16AllocateNodesetsEm = comdat any

$_ZNSt6vectorIiSaIiEE17_M_default_appendEm = comdat any

$_ZNSt6vectorIdSaIdEE17_M_default_appendEm = comdat any

$_ZNSt6vectorIdSaIdEE14_M_fill_insertEN9__gnu_cxx17__normal_iteratorIPdS1_EEmRKd = comdat any

@llvm.global_ctors = appending global [1 x { i32, void ()*, i8* }] [{ i32, void ()*, i8* } { i32 65535, void ()* @_GLOBAL__sub_I_LULESH.cc, i8* null }]
@mesh = dso_local global %struct.Mesh zeroinitializer, align 8
@.str = private unnamed_addr constant [26 x i8] c"\0A\0AElapsed time = %12.6e\0A\0A\00", align 1
@.str.2 = private unnamed_addr constant [31 x i8] c"   Problem size        =  %i \0A\00", align 1
@.str.3 = private unnamed_addr constant [31 x i8] c"   Iteration count     =  %i \0A\00", align 1
@.str.4 = private unnamed_addr constant [34 x i8] c"   Final Origin Energy = %12.6e \0A\00", align 1
@.str.5 = private unnamed_addr constant [12 x i8] c"element.dat\00", align 1
@.str.6 = private unnamed_addr constant [2 x i8] c"w\00", align 1
@.str.7 = private unnamed_addr constant [5 x i8] c"%f \0A\00", align 1
@.str.9 = private unnamed_addr constant [31 x i8] c"        MaxAbsDiff   = %12.6e\0A\00", align 1
@.str.10 = private unnamed_addr constant [31 x i8] c"        TotalAbsDiff = %12.6e\0A\00", align 1
@.str.11 = private unnamed_addr constant [32 x i8] c"        MaxRelDiff   = %12.6e\0A\0A\00", align 1
@.str.12 = private unnamed_addr constant [26 x i8] c"vector::_M_default_append\00", align 1
@.str.13 = private unnamed_addr constant [23 x i8] c"vector::_M_fill_insert\00", align 1
@str = private unnamed_addr constant [17 x i8] c"Run completed:  \00", align 1
@str.14 = private unnamed_addr constant [36 x i8] c"   Testing Plane 0 of Energy Array:\00", align 1
@getelementptr_namestr = internal constant [14 x i8] c"getelementptr\00"
@load_namestr = internal constant [5 x i8] c"load\00"

; Function Attrs: nounwind uwtable
define internal void @_GLOBAL__sub_I_LULESH.cc() #0 section ".text.startup" {
  tail call void @llvm.memset.p0i8.i64(i8* noundef nonnull align 8 dereferenceable(1128) bitcast (%struct.Mesh* @mesh to i8*), i8 0, i64 1128, i1 false) #2, !llfi_index !3
  %1 = tail call i32 @atexit(void ()* nonnull @__dtor_mesh) #2, !llfi_index !4
  ret void, !llfi_index !5
}

; Function Attrs: argmemonly nofree nounwind willreturn writeonly
declare void @llvm.memset.p0i8.i64(i8* nocapture writeonly, i8, i64, i1 immarg) #1

; Function Attrs: nounwind uwtable
define internal void @__dtor_mesh() #0 section ".text.startup" {
  tail call void @_ZN4MeshD2Ev(%struct.Mesh* @mesh), !llfi_index !6
  ret void, !llfi_index !7
}

; Function Attrs: nounwind
declare dso_local i32 @atexit(void ()*) local_unnamed_addr #2

; Function Attrs: inlinehint nounwind uwtable
define linkonce_odr dso_local void @_ZN4MeshD2Ev(%struct.Mesh* nonnull align 8 dereferenceable(1376) %0) unnamed_addr #3 comdat align 2 personality i32 (...)* @__gxx_personality_v0 {
  %2 = getelementptr inbounds %struct.Mesh, %struct.Mesh* %0, i64 0, i32 46, i32 0, i32 0, i32 0, i32 0, !llfi_index !8
  %3 = load double*, double** %2, align 8, !tbaa !9, !llfi_index !14
  %4 = icmp eq double* %3, null, !llfi_index !15
  br i1 %4, label %7, label %5, !llfi_index !16

5:                                                ; preds = %1
  %6 = bitcast double* %3 to i8*, !llfi_index !17
  tail call void @_ZdlPv(i8* nonnull %6) #2, !llfi_index !18
  br label %7, !llfi_index !19

7:                                                ; preds = %5, %1
  %8 = getelementptr inbounds %struct.Mesh, %struct.Mesh* %0, i64 0, i32 45, i32 0, i32 0, i32 0, i32 0, !llfi_index !20
  %9 = load double*, double** %8, align 8, !tbaa !9, !llfi_index !21
  %10 = icmp eq double* %9, null, !llfi_index !22
  br i1 %10, label %13, label %11, !llfi_index !23

11:                                               ; preds = %7
  %12 = bitcast double* %9 to i8*, !llfi_index !24
  tail call void @_ZdlPv(i8* nonnull %12) #2, !llfi_index !25
  br label %13, !llfi_index !26

13:                                               ; preds = %11, %7
  %14 = getelementptr inbounds %struct.Mesh, %struct.Mesh* %0, i64 0, i32 44, i32 0, i32 0, i32 0, i32 0, !llfi_index !27
  %15 = load double*, double** %14, align 8, !tbaa !9, !llfi_index !28
  %16 = icmp eq double* %15, null, !llfi_index !29
  br i1 %16, label %19, label %17, !llfi_index !30

17:                                               ; preds = %13
  %18 = bitcast double* %15 to i8*, !llfi_index !31
  tail call void @_ZdlPv(i8* nonnull %18) #2, !llfi_index !32
  br label %19, !llfi_index !33

19:                                               ; preds = %17, %13
  %20 = getelementptr inbounds %struct.Mesh, %struct.Mesh* %0, i64 0, i32 43, i32 0, i32 0, i32 0, i32 0, !llfi_index !34
  %21 = load double*, double** %20, align 8, !tbaa !9, !llfi_index !35
  %22 = icmp eq double* %21, null, !llfi_index !36
  br i1 %22, label %25, label %23, !llfi_index !37

23:                                               ; preds = %19
  %24 = bitcast double* %21 to i8*, !llfi_index !38
  tail call void @_ZdlPv(i8* nonnull %24) #2, !llfi_index !39
  br label %25, !llfi_index !40

25:                                               ; preds = %23, %19
  %26 = getelementptr inbounds %struct.Mesh, %struct.Mesh* %0, i64 0, i32 42, i32 0, i32 0, i32 0, i32 0, !llfi_index !41
  %27 = load double*, double** %26, align 8, !tbaa !9, !llfi_index !42
  %28 = icmp eq double* %27, null, !llfi_index !43
  br i1 %28, label %31, label %29, !llfi_index !44

29:                                               ; preds = %25
  %30 = bitcast double* %27 to i8*, !llfi_index !45
  tail call void @_ZdlPv(i8* nonnull %30) #2, !llfi_index !46
  br label %31, !llfi_index !47

31:                                               ; preds = %29, %25
  %32 = getelementptr inbounds %struct.Mesh, %struct.Mesh* %0, i64 0, i32 41, i32 0, i32 0, i32 0, i32 0, !llfi_index !48
  %33 = load double*, double** %32, align 8, !tbaa !9, !llfi_index !49
  %34 = icmp eq double* %33, null, !llfi_index !50
  br i1 %34, label %37, label %35, !llfi_index !51

35:                                               ; preds = %31
  %36 = bitcast double* %33 to i8*, !llfi_index !52
  tail call void @_ZdlPv(i8* nonnull %36) #2, !llfi_index !53
  br label %37, !llfi_index !54

37:                                               ; preds = %35, %31
  %38 = getelementptr inbounds %struct.Mesh, %struct.Mesh* %0, i64 0, i32 40, i32 0, i32 0, i32 0, i32 0, !llfi_index !55
  %39 = load double*, double** %38, align 8, !tbaa !9, !llfi_index !56
  %40 = icmp eq double* %39, null, !llfi_index !57
  br i1 %40, label %43, label %41, !llfi_index !58

41:                                               ; preds = %37
  %42 = bitcast double* %39 to i8*, !llfi_index !59
  tail call void @_ZdlPv(i8* nonnull %42) #2, !llfi_index !60
  br label %43, !llfi_index !61

43:                                               ; preds = %41, %37
  %44 = getelementptr inbounds %struct.Mesh, %struct.Mesh* %0, i64 0, i32 39, i32 0, i32 0, i32 0, i32 0, !llfi_index !62
  %45 = load double*, double** %44, align 8, !tbaa !9, !llfi_index !63
  %46 = icmp eq double* %45, null, !llfi_index !64
  br i1 %46, label %49, label %47, !llfi_index !65

47:                                               ; preds = %43
  %48 = bitcast double* %45 to i8*, !llfi_index !66
  tail call void @_ZdlPv(i8* nonnull %48) #2, !llfi_index !67
  br label %49, !llfi_index !68

49:                                               ; preds = %47, %43
  %50 = getelementptr inbounds %struct.Mesh, %struct.Mesh* %0, i64 0, i32 38, i32 0, i32 0, i32 0, i32 0, !llfi_index !69
  %51 = load double*, double** %50, align 8, !tbaa !9, !llfi_index !70
  %52 = icmp eq double* %51, null, !llfi_index !71
  br i1 %52, label %55, label %53, !llfi_index !72

53:                                               ; preds = %49
  %54 = bitcast double* %51 to i8*, !llfi_index !73
  tail call void @_ZdlPv(i8* nonnull %54) #2, !llfi_index !74
  br label %55, !llfi_index !75

55:                                               ; preds = %53, %49
  %56 = getelementptr inbounds %struct.Mesh, %struct.Mesh* %0, i64 0, i32 37, i32 0, i32 0, i32 0, i32 0, !llfi_index !76
  %57 = load double*, double** %56, align 8, !tbaa !9, !llfi_index !77
  %58 = icmp eq double* %57, null, !llfi_index !78
  br i1 %58, label %61, label %59, !llfi_index !79

59:                                               ; preds = %55
  %60 = bitcast double* %57 to i8*, !llfi_index !80
  tail call void @_ZdlPv(i8* nonnull %60) #2, !llfi_index !81
  br label %61, !llfi_index !82

61:                                               ; preds = %59, %55
  %62 = getelementptr inbounds %struct.Mesh, %struct.Mesh* %0, i64 0, i32 36, i32 0, i32 0, i32 0, i32 0, !llfi_index !83
  %63 = load double*, double** %62, align 8, !tbaa !9, !llfi_index !84
  %64 = icmp eq double* %63, null, !llfi_index !85
  br i1 %64, label %67, label %65, !llfi_index !86

65:                                               ; preds = %61
  %66 = bitcast double* %63 to i8*, !llfi_index !87
  tail call void @_ZdlPv(i8* nonnull %66) #2, !llfi_index !88
  br label %67, !llfi_index !89

67:                                               ; preds = %65, %61
  %68 = getelementptr inbounds %struct.Mesh, %struct.Mesh* %0, i64 0, i32 35, i32 0, i32 0, i32 0, i32 0, !llfi_index !90
  %69 = load double*, double** %68, align 8, !tbaa !9, !llfi_index !91
  %70 = icmp eq double* %69, null, !llfi_index !92
  br i1 %70, label %73, label %71, !llfi_index !93

71:                                               ; preds = %67
  %72 = bitcast double* %69 to i8*, !llfi_index !94
  tail call void @_ZdlPv(i8* nonnull %72) #2, !llfi_index !95
  br label %73, !llfi_index !96

73:                                               ; preds = %71, %67
  %74 = getelementptr inbounds %struct.Mesh, %struct.Mesh* %0, i64 0, i32 34, i32 0, i32 0, i32 0, i32 0, !llfi_index !97
  %75 = load double*, double** %74, align 8, !tbaa !9, !llfi_index !98
  %76 = icmp eq double* %75, null, !llfi_index !99
  br i1 %76, label %79, label %77, !llfi_index !100

77:                                               ; preds = %73
  %78 = bitcast double* %75 to i8*, !llfi_index !101
  tail call void @_ZdlPv(i8* nonnull %78) #2, !llfi_index !102
  br label %79, !llfi_index !103

79:                                               ; preds = %77, %73
  %80 = getelementptr inbounds %struct.Mesh, %struct.Mesh* %0, i64 0, i32 33, i32 0, i32 0, i32 0, i32 0, !llfi_index !104
  %81 = load double*, double** %80, align 8, !tbaa !9, !llfi_index !105
  %82 = icmp eq double* %81, null, !llfi_index !106
  br i1 %82, label %85, label %83, !llfi_index !107

83:                                               ; preds = %79
  %84 = bitcast double* %81 to i8*, !llfi_index !108
  tail call void @_ZdlPv(i8* nonnull %84) #2, !llfi_index !109
  br label %85, !llfi_index !110

85:                                               ; preds = %83, %79
  %86 = getelementptr inbounds %struct.Mesh, %struct.Mesh* %0, i64 0, i32 32, i32 0, i32 0, i32 0, i32 0, !llfi_index !111
  %87 = load double*, double** %86, align 8, !tbaa !9, !llfi_index !112
  %88 = icmp eq double* %87, null, !llfi_index !113
  br i1 %88, label %91, label %89, !llfi_index !114

89:                                               ; preds = %85
  %90 = bitcast double* %87 to i8*, !llfi_index !115
  tail call void @_ZdlPv(i8* nonnull %90) #2, !llfi_index !116
  br label %91, !llfi_index !117

91:                                               ; preds = %89, %85
  %92 = getelementptr inbounds %struct.Mesh, %struct.Mesh* %0, i64 0, i32 31, i32 0, i32 0, i32 0, i32 0, !llfi_index !118
  %93 = load double*, double** %92, align 8, !tbaa !9, !llfi_index !119
  %94 = icmp eq double* %93, null, !llfi_index !120
  br i1 %94, label %97, label %95, !llfi_index !121

95:                                               ; preds = %91
  %96 = bitcast double* %93 to i8*, !llfi_index !122
  tail call void @_ZdlPv(i8* nonnull %96) #2, !llfi_index !123
  br label %97, !llfi_index !124

97:                                               ; preds = %95, %91
  %98 = getelementptr inbounds %struct.Mesh, %struct.Mesh* %0, i64 0, i32 30, i32 0, i32 0, i32 0, i32 0, !llfi_index !125
  %99 = load double*, double** %98, align 8, !tbaa !9, !llfi_index !126
  %100 = icmp eq double* %99, null, !llfi_index !127
  br i1 %100, label %103, label %101, !llfi_index !128

101:                                              ; preds = %97
  %102 = bitcast double* %99 to i8*, !llfi_index !129
  tail call void @_ZdlPv(i8* nonnull %102) #2, !llfi_index !130
  br label %103, !llfi_index !131

103:                                              ; preds = %101, %97
  %104 = getelementptr inbounds %struct.Mesh, %struct.Mesh* %0, i64 0, i32 29, i32 0, i32 0, i32 0, i32 0, !llfi_index !132
  %105 = load double*, double** %104, align 8, !tbaa !9, !llfi_index !133
  %106 = icmp eq double* %105, null, !llfi_index !134
  br i1 %106, label %109, label %107, !llfi_index !135

107:                                              ; preds = %103
  %108 = bitcast double* %105 to i8*, !llfi_index !136
  tail call void @_ZdlPv(i8* nonnull %108) #2, !llfi_index !137
  br label %109, !llfi_index !138

109:                                              ; preds = %107, %103
  %110 = getelementptr inbounds %struct.Mesh, %struct.Mesh* %0, i64 0, i32 28, i32 0, i32 0, i32 0, i32 0, !llfi_index !139
  %111 = load double*, double** %110, align 8, !tbaa !9, !llfi_index !140
  %112 = icmp eq double* %111, null, !llfi_index !141
  br i1 %112, label %115, label %113, !llfi_index !142

113:                                              ; preds = %109
  %114 = bitcast double* %111 to i8*, !llfi_index !143
  tail call void @_ZdlPv(i8* nonnull %114) #2, !llfi_index !144
  br label %115, !llfi_index !145

115:                                              ; preds = %113, %109
  %116 = getelementptr inbounds %struct.Mesh, %struct.Mesh* %0, i64 0, i32 27, i32 0, i32 0, i32 0, i32 0, !llfi_index !146
  %117 = load double*, double** %116, align 8, !tbaa !9, !llfi_index !147
  %118 = icmp eq double* %117, null, !llfi_index !148
  br i1 %118, label %121, label %119, !llfi_index !149

119:                                              ; preds = %115
  %120 = bitcast double* %117 to i8*, !llfi_index !150
  tail call void @_ZdlPv(i8* nonnull %120) #2, !llfi_index !151
  br label %121, !llfi_index !152

121:                                              ; preds = %119, %115
  %122 = getelementptr inbounds %struct.Mesh, %struct.Mesh* %0, i64 0, i32 26, i32 0, i32 0, i32 0, i32 0, !llfi_index !153
  %123 = load double*, double** %122, align 8, !tbaa !9, !llfi_index !154
  %124 = icmp eq double* %123, null, !llfi_index !155
  br i1 %124, label %127, label %125, !llfi_index !156

125:                                              ; preds = %121
  %126 = bitcast double* %123 to i8*, !llfi_index !157
  tail call void @_ZdlPv(i8* nonnull %126) #2, !llfi_index !158
  br label %127, !llfi_index !159

127:                                              ; preds = %125, %121
  %128 = getelementptr inbounds %struct.Mesh, %struct.Mesh* %0, i64 0, i32 25, i32 0, i32 0, i32 0, i32 0, !llfi_index !160
  %129 = load double*, double** %128, align 8, !tbaa !9, !llfi_index !161
  %130 = icmp eq double* %129, null, !llfi_index !162
  br i1 %130, label %133, label %131, !llfi_index !163

131:                                              ; preds = %127
  %132 = bitcast double* %129 to i8*, !llfi_index !164
  tail call void @_ZdlPv(i8* nonnull %132) #2, !llfi_index !165
  br label %133, !llfi_index !166

133:                                              ; preds = %131, %127
  %134 = getelementptr inbounds %struct.Mesh, %struct.Mesh* %0, i64 0, i32 24, i32 0, i32 0, i32 0, i32 0, !llfi_index !167
  %135 = load i32*, i32** %134, align 8, !tbaa !168, !llfi_index !170
  %136 = icmp eq i32* %135, null, !llfi_index !171
  br i1 %136, label %139, label %137, !llfi_index !172

137:                                              ; preds = %133
  %138 = bitcast i32* %135 to i8*, !llfi_index !173
  tail call void @_ZdlPv(i8* nonnull %138) #2, !llfi_index !174
  br label %139, !llfi_index !175

139:                                              ; preds = %137, %133
  %140 = getelementptr inbounds %struct.Mesh, %struct.Mesh* %0, i64 0, i32 23, i32 0, i32 0, i32 0, i32 0, !llfi_index !176
  %141 = load i32*, i32** %140, align 8, !tbaa !168, !llfi_index !177
  %142 = icmp eq i32* %141, null, !llfi_index !178
  br i1 %142, label %145, label %143, !llfi_index !179

143:                                              ; preds = %139
  %144 = bitcast i32* %141 to i8*, !llfi_index !180
  tail call void @_ZdlPv(i8* nonnull %144) #2, !llfi_index !181
  br label %145, !llfi_index !182

145:                                              ; preds = %143, %139
  %146 = getelementptr inbounds %struct.Mesh, %struct.Mesh* %0, i64 0, i32 22, i32 0, i32 0, i32 0, i32 0, !llfi_index !183
  %147 = load i32*, i32** %146, align 8, !tbaa !168, !llfi_index !184
  %148 = icmp eq i32* %147, null, !llfi_index !185
  br i1 %148, label %151, label %149, !llfi_index !186

149:                                              ; preds = %145
  %150 = bitcast i32* %147 to i8*, !llfi_index !187
  tail call void @_ZdlPv(i8* nonnull %150) #2, !llfi_index !188
  br label %151, !llfi_index !189

151:                                              ; preds = %149, %145
  %152 = getelementptr inbounds %struct.Mesh, %struct.Mesh* %0, i64 0, i32 21, i32 0, i32 0, i32 0, i32 0, !llfi_index !190
  %153 = load i32*, i32** %152, align 8, !tbaa !168, !llfi_index !191
  %154 = icmp eq i32* %153, null, !llfi_index !192
  br i1 %154, label %157, label %155, !llfi_index !193

155:                                              ; preds = %151
  %156 = bitcast i32* %153 to i8*, !llfi_index !194
  tail call void @_ZdlPv(i8* nonnull %156) #2, !llfi_index !195
  br label %157, !llfi_index !196

157:                                              ; preds = %155, %151
  %158 = getelementptr inbounds %struct.Mesh, %struct.Mesh* %0, i64 0, i32 20, i32 0, i32 0, i32 0, i32 0, !llfi_index !197
  %159 = load i32*, i32** %158, align 8, !tbaa !168, !llfi_index !198
  %160 = icmp eq i32* %159, null, !llfi_index !199
  br i1 %160, label %163, label %161, !llfi_index !200

161:                                              ; preds = %157
  %162 = bitcast i32* %159 to i8*, !llfi_index !201
  tail call void @_ZdlPv(i8* nonnull %162) #2, !llfi_index !202
  br label %163, !llfi_index !203

163:                                              ; preds = %161, %157
  %164 = getelementptr inbounds %struct.Mesh, %struct.Mesh* %0, i64 0, i32 19, i32 0, i32 0, i32 0, i32 0, !llfi_index !204
  %165 = load i32*, i32** %164, align 8, !tbaa !168, !llfi_index !205
  %166 = icmp eq i32* %165, null, !llfi_index !206
  br i1 %166, label %169, label %167, !llfi_index !207

167:                                              ; preds = %163
  %168 = bitcast i32* %165 to i8*, !llfi_index !208
  tail call void @_ZdlPv(i8* nonnull %168) #2, !llfi_index !209
  br label %169, !llfi_index !210

169:                                              ; preds = %167, %163
  %170 = getelementptr inbounds %struct.Mesh, %struct.Mesh* %0, i64 0, i32 18, i32 0, i32 0, i32 0, i32 0, !llfi_index !211
  %171 = load i32*, i32** %170, align 8, !tbaa !168, !llfi_index !212
  %172 = icmp eq i32* %171, null, !llfi_index !213
  br i1 %172, label %175, label %173, !llfi_index !214

173:                                              ; preds = %169
  %174 = bitcast i32* %171 to i8*, !llfi_index !215
  tail call void @_ZdlPv(i8* nonnull %174) #2, !llfi_index !216
  br label %175, !llfi_index !217

175:                                              ; preds = %173, %169
  %176 = getelementptr inbounds %struct.Mesh, %struct.Mesh* %0, i64 0, i32 17, i32 0, i32 0, i32 0, i32 0, !llfi_index !218
  %177 = load i32*, i32** %176, align 8, !tbaa !168, !llfi_index !219
  %178 = icmp eq i32* %177, null, !llfi_index !220
  br i1 %178, label %181, label %179, !llfi_index !221

179:                                              ; preds = %175
  %180 = bitcast i32* %177 to i8*, !llfi_index !222
  tail call void @_ZdlPv(i8* nonnull %180) #2, !llfi_index !223
  br label %181, !llfi_index !224

181:                                              ; preds = %179, %175
  %182 = getelementptr inbounds %struct.Mesh, %struct.Mesh* %0, i64 0, i32 16, i32 0, i32 0, i32 0, i32 0, !llfi_index !225
  %183 = load i32*, i32** %182, align 8, !tbaa !168, !llfi_index !226
  %184 = icmp eq i32* %183, null, !llfi_index !227
  br i1 %184, label %187, label %185, !llfi_index !228

185:                                              ; preds = %181
  %186 = bitcast i32* %183 to i8*, !llfi_index !229
  tail call void @_ZdlPv(i8* nonnull %186) #2, !llfi_index !230
  br label %187, !llfi_index !231

187:                                              ; preds = %185, %181
  %188 = getelementptr inbounds %struct.Mesh, %struct.Mesh* %0, i64 0, i32 15, i32 0, i32 0, i32 0, i32 0, !llfi_index !232
  %189 = load i32*, i32** %188, align 8, !tbaa !168, !llfi_index !233
  %190 = icmp eq i32* %189, null, !llfi_index !234
  br i1 %190, label %193, label %191, !llfi_index !235

191:                                              ; preds = %187
  %192 = bitcast i32* %189 to i8*, !llfi_index !236
  tail call void @_ZdlPv(i8* nonnull %192) #2, !llfi_index !237
  br label %193, !llfi_index !238

193:                                              ; preds = %191, %187
  %194 = getelementptr inbounds %struct.Mesh, %struct.Mesh* %0, i64 0, i32 14, i32 0, i32 0, i32 0, i32 0, !llfi_index !239
  %195 = load i32*, i32** %194, align 8, !tbaa !168, !llfi_index !240
  %196 = icmp eq i32* %195, null, !llfi_index !241
  br i1 %196, label %199, label %197, !llfi_index !242

197:                                              ; preds = %193
  %198 = bitcast i32* %195 to i8*, !llfi_index !243
  tail call void @_ZdlPv(i8* nonnull %198) #2, !llfi_index !244
  br label %199, !llfi_index !245

199:                                              ; preds = %197, %193
  %200 = getelementptr inbounds %struct.Mesh, %struct.Mesh* %0, i64 0, i32 13, i32 0, i32 0, i32 0, i32 0, !llfi_index !246
  %201 = load i32*, i32** %200, align 8, !tbaa !168, !llfi_index !247
  %202 = icmp eq i32* %201, null, !llfi_index !248
  br i1 %202, label %205, label %203, !llfi_index !249

203:                                              ; preds = %199
  %204 = bitcast i32* %201 to i8*, !llfi_index !250
  tail call void @_ZdlPv(i8* nonnull %204) #2, !llfi_index !251
  br label %205, !llfi_index !252

205:                                              ; preds = %203, %199
  %206 = getelementptr inbounds %struct.Mesh, %struct.Mesh* %0, i64 0, i32 12, i32 0, i32 0, i32 0, i32 0, !llfi_index !253
  %207 = load double*, double** %206, align 8, !tbaa !9, !llfi_index !254
  %208 = icmp eq double* %207, null, !llfi_index !255
  br i1 %208, label %211, label %209, !llfi_index !256

209:                                              ; preds = %205
  %210 = bitcast double* %207 to i8*, !llfi_index !257
  tail call void @_ZdlPv(i8* nonnull %210) #2, !llfi_index !258
  br label %211, !llfi_index !259

211:                                              ; preds = %209, %205
  %212 = getelementptr inbounds %struct.Mesh, %struct.Mesh* %0, i64 0, i32 11, i32 0, i32 0, i32 0, i32 0, !llfi_index !260
  %213 = load double*, double** %212, align 8, !tbaa !9, !llfi_index !261
  %214 = icmp eq double* %213, null, !llfi_index !262
  br i1 %214, label %217, label %215, !llfi_index !263

215:                                              ; preds = %211
  %216 = bitcast double* %213 to i8*, !llfi_index !264
  tail call void @_ZdlPv(i8* nonnull %216) #2, !llfi_index !265
  br label %217, !llfi_index !266

217:                                              ; preds = %215, %211
  %218 = getelementptr inbounds %struct.Mesh, %struct.Mesh* %0, i64 0, i32 10, i32 0, i32 0, i32 0, i32 0, !llfi_index !267
  %219 = load double*, double** %218, align 8, !tbaa !9, !llfi_index !268
  %220 = icmp eq double* %219, null, !llfi_index !269
  br i1 %220, label %223, label %221, !llfi_index !270

221:                                              ; preds = %217
  %222 = bitcast double* %219 to i8*, !llfi_index !271
  tail call void @_ZdlPv(i8* nonnull %222) #2, !llfi_index !272
  br label %223, !llfi_index !273

223:                                              ; preds = %221, %217
  %224 = getelementptr inbounds %struct.Mesh, %struct.Mesh* %0, i64 0, i32 9, i32 0, i32 0, i32 0, i32 0, !llfi_index !274
  %225 = load double*, double** %224, align 8, !tbaa !9, !llfi_index !275
  %226 = icmp eq double* %225, null, !llfi_index !276
  br i1 %226, label %229, label %227, !llfi_index !277

227:                                              ; preds = %223
  %228 = bitcast double* %225 to i8*, !llfi_index !278
  tail call void @_ZdlPv(i8* nonnull %228) #2, !llfi_index !279
  br label %229, !llfi_index !280

229:                                              ; preds = %227, %223
  %230 = getelementptr inbounds %struct.Mesh, %struct.Mesh* %0, i64 0, i32 8, i32 0, i32 0, i32 0, i32 0, !llfi_index !281
  %231 = load double*, double** %230, align 8, !tbaa !9, !llfi_index !282
  %232 = icmp eq double* %231, null, !llfi_index !283
  br i1 %232, label %235, label %233, !llfi_index !284

233:                                              ; preds = %229
  %234 = bitcast double* %231 to i8*, !llfi_index !285
  tail call void @_ZdlPv(i8* nonnull %234) #2, !llfi_index !286
  br label %235, !llfi_index !287

235:                                              ; preds = %233, %229
  %236 = getelementptr inbounds %struct.Mesh, %struct.Mesh* %0, i64 0, i32 7, i32 0, i32 0, i32 0, i32 0, !llfi_index !288
  %237 = load double*, double** %236, align 8, !tbaa !9, !llfi_index !289
  %238 = icmp eq double* %237, null, !llfi_index !290
  br i1 %238, label %241, label %239, !llfi_index !291

239:                                              ; preds = %235
  %240 = bitcast double* %237 to i8*, !llfi_index !292
  tail call void @_ZdlPv(i8* nonnull %240) #2, !llfi_index !293
  br label %241, !llfi_index !294

241:                                              ; preds = %239, %235
  %242 = getelementptr inbounds %struct.Mesh, %struct.Mesh* %0, i64 0, i32 6, i32 0, i32 0, i32 0, i32 0, !llfi_index !295
  %243 = load double*, double** %242, align 8, !tbaa !9, !llfi_index !296
  %244 = icmp eq double* %243, null, !llfi_index !297
  br i1 %244, label %247, label %245, !llfi_index !298

245:                                              ; preds = %241
  %246 = bitcast double* %243 to i8*, !llfi_index !299
  tail call void @_ZdlPv(i8* nonnull %246) #2, !llfi_index !300
  br label %247, !llfi_index !301

247:                                              ; preds = %245, %241
  %248 = getelementptr inbounds %struct.Mesh, %struct.Mesh* %0, i64 0, i32 5, i32 0, i32 0, i32 0, i32 0, !llfi_index !302
  %249 = load double*, double** %248, align 8, !tbaa !9, !llfi_index !303
  %250 = icmp eq double* %249, null, !llfi_index !304
  br i1 %250, label %253, label %251, !llfi_index !305

251:                                              ; preds = %247
  %252 = bitcast double* %249 to i8*, !llfi_index !306
  tail call void @_ZdlPv(i8* nonnull %252) #2, !llfi_index !307
  br label %253, !llfi_index !308

253:                                              ; preds = %251, %247
  %254 = getelementptr inbounds %struct.Mesh, %struct.Mesh* %0, i64 0, i32 4, i32 0, i32 0, i32 0, i32 0, !llfi_index !309
  %255 = load double*, double** %254, align 8, !tbaa !9, !llfi_index !310
  %256 = icmp eq double* %255, null, !llfi_index !311
  br i1 %256, label %259, label %257, !llfi_index !312

257:                                              ; preds = %253
  %258 = bitcast double* %255 to i8*, !llfi_index !313
  tail call void @_ZdlPv(i8* nonnull %258) #2, !llfi_index !314
  br label %259, !llfi_index !315

259:                                              ; preds = %257, %253
  %260 = getelementptr inbounds %struct.Mesh, %struct.Mesh* %0, i64 0, i32 3, i32 0, i32 0, i32 0, i32 0, !llfi_index !316
  %261 = load double*, double** %260, align 8, !tbaa !9, !llfi_index !317
  %262 = icmp eq double* %261, null, !llfi_index !318
  br i1 %262, label %265, label %263, !llfi_index !319

263:                                              ; preds = %259
  %264 = bitcast double* %261 to i8*, !llfi_index !320
  tail call void @_ZdlPv(i8* nonnull %264) #2, !llfi_index !321
  br label %265, !llfi_index !322

265:                                              ; preds = %263, %259
  %266 = getelementptr inbounds %struct.Mesh, %struct.Mesh* %0, i64 0, i32 2, i32 0, i32 0, i32 0, i32 0, !llfi_index !323
  %267 = load double*, double** %266, align 8, !tbaa !9, !llfi_index !324
  %268 = icmp eq double* %267, null, !llfi_index !325
  br i1 %268, label %271, label %269, !llfi_index !326

269:                                              ; preds = %265
  %270 = bitcast double* %267 to i8*, !llfi_index !327
  tail call void @_ZdlPv(i8* nonnull %270) #2, !llfi_index !328
  br label %271, !llfi_index !329

271:                                              ; preds = %269, %265
  %272 = getelementptr inbounds %struct.Mesh, %struct.Mesh* %0, i64 0, i32 1, i32 0, i32 0, i32 0, i32 0, !llfi_index !330
  %273 = load double*, double** %272, align 8, !tbaa !9, !llfi_index !331
  %274 = icmp eq double* %273, null, !llfi_index !332
  br i1 %274, label %277, label %275, !llfi_index !333

275:                                              ; preds = %271
  %276 = bitcast double* %273 to i8*, !llfi_index !334
  tail call void @_ZdlPv(i8* nonnull %276) #2, !llfi_index !335
  br label %277, !llfi_index !336

277:                                              ; preds = %275, %271
  %278 = getelementptr inbounds %struct.Mesh, %struct.Mesh* %0, i64 0, i32 0, i32 0, i32 0, i32 0, i32 0, !llfi_index !337
  %279 = load double*, double** %278, align 8, !tbaa !9, !llfi_index !338
  %280 = icmp eq double* %279, null, !llfi_index !339
  br i1 %280, label %283, label %281, !llfi_index !340

281:                                              ; preds = %277
  %282 = bitcast double* %279 to i8*, !llfi_index !341
  tail call void @_ZdlPv(i8* nonnull %282) #2, !llfi_index !342
  br label %283, !llfi_index !343

283:                                              ; preds = %281, %277
  ret void, !llfi_index !344
}

declare dso_local i32 @__gxx_personality_v0(...)

; Function Attrs: nobuiltin nounwind
declare dso_local void @_ZdlPv(i8*) local_unnamed_addr #4

; Function Attrs: mustprogress nofree noinline norecurse nosync nounwind uwtable willreturn
define dso_local void @_Z13TimeIncrementv() local_unnamed_addr #5 {
  %1 = load double, double* getelementptr inbounds (%struct.Mesh, %struct.Mesh* @mesh, i64 0, i32 52), align 8, !tbaa !345, !llfi_index !347
  %2 = load double, double* getelementptr inbounds (%struct.Mesh, %struct.Mesh* @mesh, i64 0, i32 48), align 8, !tbaa !345, !llfi_index !348
  %3 = fsub double %1, %2, !llfi_index !349
  %4 = load double, double* getelementptr inbounds (%struct.Mesh, %struct.Mesh* @mesh, i64 0, i32 47), align 8, !tbaa !345, !llfi_index !350
  %5 = fcmp ugt double %4, 0.000000e+00, !llfi_index !351
  %6 = load i32, i32* getelementptr inbounds (%struct.Mesh, %struct.Mesh* @mesh, i64 0, i32 75), align 8, !llfi_index !352
  %7 = icmp eq i32 %6, 0, !llfi_index !353
  %8 = select i1 %5, i1 true, i1 %7, !llfi_index !354
  %9 = load double, double* getelementptr inbounds (%struct.Mesh, %struct.Mesh* @mesh, i64 0, i32 49), align 8, !tbaa !345, !llfi_index !355
  br i1 %8, label %37, label %10, !llfi_index !356

10:                                               ; preds = %0
  %11 = load double, double* getelementptr inbounds (%struct.Mesh, %struct.Mesh* @mesh, i64 0, i32 72), align 8, !tbaa !345, !llfi_index !357
  %12 = fcmp olt double %11, 1.000000e+20, !llfi_index !358
  %13 = fmul double %11, 5.000000e-01, !llfi_index !359
  %14 = select i1 %12, double %13, double 1.000000e+20, !llfi_index !360
  %15 = load double, double* getelementptr inbounds (%struct.Mesh, %struct.Mesh* @mesh, i64 0, i32 73), align 8, !tbaa !345, !llfi_index !361
  %16 = fcmp olt double %15, %14, !llfi_index !362
  br i1 %16, label %17, label %20, !llfi_index !363

17:                                               ; preds = %10
  %18 = fmul double %15, 2.000000e+00, !llfi_index !364
  %19 = fdiv double %18, 3.000000e+00, !llfi_index !365
  br label %20, !llfi_index !366

20:                                               ; preds = %17, %10
  %21 = phi double [ %19, %17 ], [ %14, %10 ], !llfi_index !367
  %22 = fdiv double %21, %9, !llfi_index !368
  %23 = fcmp ult double %22, 1.000000e+00, !llfi_index !369
  br i1 %23, label %32, label %24, !llfi_index !370

24:                                               ; preds = %20
  %25 = load double, double* getelementptr inbounds (%struct.Mesh, %struct.Mesh* @mesh, i64 0, i32 50), align 8, !tbaa !345, !llfi_index !371
  %26 = fcmp olt double %22, %25, !llfi_index !372
  br i1 %26, label %32, label %27, !llfi_index !373

27:                                               ; preds = %24
  %28 = load double, double* getelementptr inbounds (%struct.Mesh, %struct.Mesh* @mesh, i64 0, i32 51), align 8, !tbaa !345, !llfi_index !374
  %29 = fcmp ogt double %22, %28, !llfi_index !375
  br i1 %29, label %30, label %32, !llfi_index !376

30:                                               ; preds = %27
  %31 = fmul double %9, %28, !llfi_index !377
  br label %32, !llfi_index !378

32:                                               ; preds = %30, %27, %24, %20
  %33 = phi double [ %31, %30 ], [ %21, %27 ], [ %21, %20 ], [ %9, %24 ], !llfi_index !379
  %34 = load double, double* getelementptr inbounds (%struct.Mesh, %struct.Mesh* @mesh, i64 0, i32 74), align 8, !tbaa !345, !llfi_index !380
  %35 = fcmp ogt double %33, %34, !llfi_index !381
  %36 = select i1 %35, double %34, double %33, !llfi_index !382
  store double %36, double* getelementptr inbounds (%struct.Mesh, %struct.Mesh* @mesh, i64 0, i32 49), align 8, !tbaa !345, !llfi_index !383
  br label %37, !llfi_index !384

37:                                               ; preds = %32, %0
  %38 = phi double [ %36, %32 ], [ %9, %0 ], !llfi_index !385
  %39 = fcmp ogt double %3, %38, !llfi_index !386
  br i1 %39, label %40, label %47, !llfi_index !387

40:                                               ; preds = %37
  %41 = fmul double %38, 4.000000e+00, !llfi_index !388
  %42 = fdiv double %41, 3.000000e+00, !llfi_index !389
  %43 = fcmp olt double %3, %42, !llfi_index !390
  br i1 %43, label %44, label %47, !llfi_index !391

44:                                               ; preds = %40
  %45 = fmul double %38, 2.000000e+00, !llfi_index !392
  %46 = fdiv double %45, 3.000000e+00, !llfi_index !393
  br label %47, !llfi_index !394

47:                                               ; preds = %44, %40, %37
  %48 = phi double [ %46, %44 ], [ %3, %40 ], [ %3, %37 ], !llfi_index !395
  %49 = fcmp olt double %48, %38, !llfi_index !396
  br i1 %49, label %50, label %51, !llfi_index !397

50:                                               ; preds = %47
  store double %48, double* getelementptr inbounds (%struct.Mesh, %struct.Mesh* @mesh, i64 0, i32 49), align 8, !tbaa !345, !llfi_index !398
  br label %51, !llfi_index !399

51:                                               ; preds = %50, %47
  %52 = phi double [ %48, %50 ], [ %38, %47 ], !llfi_index !400
  %53 = fadd double %2, %52, !llfi_index !401
  store double %53, double* getelementptr inbounds (%struct.Mesh, %struct.Mesh* @mesh, i64 0, i32 48), align 8, !tbaa !345, !llfi_index !402
  %54 = add nsw i32 %6, 1, !llfi_index !403
  store i32 %54, i32* getelementptr inbounds (%struct.Mesh, %struct.Mesh* @mesh, i64 0, i32 75), align 8, !tbaa !404, !llfi_index !406
  ret void, !llfi_index !407
}

; Function Attrs: mustprogress nofree noinline norecurse nosync nounwind uwtable
define dso_local void @_Z23InitStressTermsForElemsiPdS_S_(i32 %0, double* nocapture %1, double* nocapture %2, double* nocapture %3) local_unnamed_addr #6 {
  %5 = load double*, double** getelementptr inbounds (%struct.Mesh, %struct.Mesh* @mesh, i64 0, i32 35, i32 0, i32 0, i32 0, i32 0), align 8, !llfi_index !408
  %6 = load double*, double** getelementptr inbounds (%struct.Mesh, %struct.Mesh* @mesh, i64 0, i32 36, i32 0, i32 0, i32 0, i32 0), align 8, !llfi_index !409
  %7 = icmp sgt i32 %0, 0, !llfi_index !410
  br i1 %7, label %8, label %.loopexit, !llfi_index !411

8:                                                ; preds = %4
  %9 = zext i32 %0 to i64, !llfi_index !412
  br label %10, !llfi_index !413

.loopexit:                                        ; preds = %10, %4
  ret void, !llfi_index !414

10:                                               ; preds = %10, %8
  %11 = phi i64 [ 0, %8 ], [ %21, %10 ], !llfi_index !415
  %12 = getelementptr inbounds double, double* %5, i64 %11, !llfi_index !416
  %13 = load double, double* %12, align 8, !tbaa !345, !llfi_index !417
  %14 = fneg double %13, !llfi_index !418
  %15 = getelementptr inbounds double, double* %6, i64 %11, !llfi_index !419
  %16 = load double, double* %15, align 8, !tbaa !345, !llfi_index !420
  %17 = fsub double %14, %16, !llfi_index !421
  %18 = getelementptr inbounds double, double* %3, i64 %11, !llfi_index !422
  store double %17, double* %18, align 8, !tbaa !345, !llfi_index !423
  %19 = getelementptr inbounds double, double* %2, i64 %11, !llfi_index !424
  store double %17, double* %19, align 8, !tbaa !345, !llfi_index !425
  %20 = getelementptr inbounds double, double* %1, i64 %11, !llfi_index !426
  store double %17, double* %20, align 8, !tbaa !345, !llfi_index !427
  %21 = add nuw nsw i64 %11, 1, !llfi_index !428
  %22 = icmp eq i64 %21, %9, !llfi_index !429
  br i1 %22, label %.loopexit, label %10, !llvm.loop !430, !llfi_index !433
}

; Function Attrs: mustprogress nofree noinline norecurse nosync nounwind uwtable willreturn
define dso_local void @_Z32CalcElemShapeFunctionDerivativesPKdS0_S0_PA8_dPd(double* nocapture readonly %0, double* nocapture readonly %1, double* nocapture readonly %2, [8 x double]* %3, double* nocapture %4) local_unnamed_addr #5 {
  %6 = load double, double* %0, align 8, !tbaa !345, !llfi_index !434
  %7 = getelementptr inbounds double, double* %0, i64 1, !llfi_index !435
  %8 = load double, double* %7, align 8, !tbaa !345, !llfi_index !436
  %9 = getelementptr inbounds double, double* %0, i64 2, !llfi_index !437
  %10 = load double, double* %9, align 8, !tbaa !345, !llfi_index !438
  %11 = getelementptr inbounds double, double* %0, i64 3, !llfi_index !439
  %12 = load double, double* %11, align 8, !tbaa !345, !llfi_index !440
  %13 = getelementptr inbounds double, double* %0, i64 4, !llfi_index !441
  %14 = load double, double* %13, align 8, !tbaa !345, !llfi_index !442
  %15 = getelementptr inbounds double, double* %0, i64 5, !llfi_index !443
  %16 = load double, double* %15, align 8, !tbaa !345, !llfi_index !444
  %17 = getelementptr inbounds double, double* %0, i64 6, !llfi_index !445
  %18 = load double, double* %17, align 8, !tbaa !345, !llfi_index !446
  %19 = getelementptr inbounds double, double* %0, i64 7, !llfi_index !447
  %20 = load double, double* %19, align 8, !tbaa !345, !llfi_index !448
  %21 = load double, double* %1, align 8, !tbaa !345, !llfi_index !449
  %22 = getelementptr inbounds double, double* %1, i64 1, !llfi_index !450
  %23 = load double, double* %22, align 8, !tbaa !345, !llfi_index !451
  %24 = getelementptr inbounds double, double* %1, i64 2, !llfi_index !452
  %25 = load double, double* %24, align 8, !tbaa !345, !llfi_index !453
  %26 = getelementptr inbounds double, double* %1, i64 3, !llfi_index !454
  %27 = load double, double* %26, align 8, !tbaa !345, !llfi_index !455
  %28 = getelementptr inbounds double, double* %1, i64 4, !llfi_index !456
  %29 = load double, double* %28, align 8, !tbaa !345, !llfi_index !457
  %30 = getelementptr inbounds double, double* %1, i64 5, !llfi_index !458
  %31 = load double, double* %30, align 8, !tbaa !345, !llfi_index !459
  %32 = getelementptr inbounds double, double* %1, i64 6, !llfi_index !460
  %33 = load double, double* %32, align 8, !tbaa !345, !llfi_index !461
  %34 = getelementptr inbounds double, double* %1, i64 7, !llfi_index !462
  %35 = load double, double* %34, align 8, !tbaa !345, !llfi_index !463
  %36 = load double, double* %2, align 8, !tbaa !345, !llfi_index !464
  %37 = getelementptr inbounds double, double* %2, i64 1, !llfi_index !465
  %38 = load double, double* %37, align 8, !tbaa !345, !llfi_index !466
  %39 = getelementptr inbounds double, double* %2, i64 2, !llfi_index !467
  %40 = load double, double* %39, align 8, !tbaa !345, !llfi_index !468
  %41 = getelementptr inbounds double, double* %2, i64 3, !llfi_index !469
  %42 = load double, double* %41, align 8, !tbaa !345, !llfi_index !470
  %43 = getelementptr inbounds double, double* %2, i64 4, !llfi_index !471
  %44 = load double, double* %43, align 8, !tbaa !345, !llfi_index !472
  %45 = getelementptr inbounds double, double* %2, i64 5, !llfi_index !473
  %46 = load double, double* %45, align 8, !tbaa !345, !llfi_index !474
  %47 = getelementptr inbounds double, double* %2, i64 6, !llfi_index !475
  %48 = load double, double* %47, align 8, !tbaa !345, !llfi_index !476
  %49 = getelementptr inbounds double, double* %2, i64 7, !llfi_index !477
  %50 = load double, double* %49, align 8, !tbaa !345, !llfi_index !478
  %51 = insertelement <2 x double> poison, double %16, i32 0, !llfi_index !479
  %52 = insertelement <2 x double> %51, double %33, i32 1, !llfi_index !480
  %53 = insertelement <2 x double> poison, double %12, i32 0, !llfi_index !481
  %54 = insertelement <2 x double> %53, double %21, i32 1, !llfi_index !482
  %55 = fsub <2 x double> %52, %54, !llfi_index !483
  %56 = insertelement <2 x double> poison, double %18, i32 0, !llfi_index !484
  %57 = insertelement <2 x double> %56, double %31, i32 1, !llfi_index !485
  %58 = insertelement <2 x double> poison, double %6, i32 0, !llfi_index !486
  %59 = insertelement <2 x double> %58, double %27, i32 1, !llfi_index !487
  %60 = fsub <2 x double> %57, %59, !llfi_index !488
  %61 = fadd <2 x double> %60, %55, !llfi_index !489
  %62 = extractelement <2 x double> %61, i32 0, !llfi_index !490
  %63 = fsub double %20, %8, !llfi_index !491
  %64 = insertelement <2 x double> poison, double %14, i32 0, !llfi_index !492
  %65 = shufflevector <2 x double> %64, <2 x double> %61, <2 x i32> <i32 0, i32 2>, !llfi_index !493
  %66 = insertelement <2 x double> poison, double %10, i32 0, !llfi_index !494
  %67 = insertelement <2 x double> %66, double %63, i32 1, !llfi_index !495
  %68 = fsub <2 x double> %65, %67, !llfi_index !496
  %69 = fadd double %63, %62, !llfi_index !497
  %70 = insertelement <2 x double> poison, double %69, i32 0, !llfi_index !498
  %71 = shufflevector <2 x double> %70, <2 x double> %68, <2 x i32> <i32 0, i32 2>, !llfi_index !499
  %72 = fadd <2 x double> %68, %71, !llfi_index !500
  %73 = fsub <2 x double> %68, %71, !llfi_index !501
  %74 = shufflevector <2 x double> %72, <2 x double> %73, <2 x i32> <i32 0, i32 3>, !llfi_index !502
  %75 = fmul <2 x double> %74, <double 1.250000e-01, double 1.250000e-01>, !llfi_index !503
  %76 = fsub <2 x double> %60, %55, !llfi_index !504
  %77 = shufflevector <2 x double> %76, <2 x double> %61, <2 x i32> <i32 0, i32 3>, !llfi_index !505
  %78 = extractelement <2 x double> %55, i32 1, !llfi_index !506
  %79 = insertelement <2 x double> poison, double %78, i32 0, !llfi_index !507
  %80 = insertelement <2 x double> %79, double %35, i32 1, !llfi_index !508
  %81 = extractelement <2 x double> %60, i32 1, !llfi_index !509
  %82 = insertelement <2 x double> poison, double %81, i32 0, !llfi_index !510
  %83 = insertelement <2 x double> %82, double %23, i32 1, !llfi_index !511
  %84 = fsub <2 x double> %80, %83, !llfi_index !512
  %85 = insertelement <2 x double> %84, double %63, i32 0, !llfi_index !513
  %86 = fadd <2 x double> %77, %85, !llfi_index !514
  %87 = fsub <2 x double> %77, %85, !llfi_index !515
  %88 = shufflevector <2 x double> %86, <2 x double> %87, <2 x i32> <i32 0, i32 3>, !llfi_index !516
  %89 = fsub double %29, %25, !llfi_index !517
  %90 = insertelement <2 x double> %68, double %89, i32 1, !llfi_index !518
  %91 = fsub <2 x double> %88, %90, !llfi_index !519
  %92 = fmul <2 x double> %91, <double 1.250000e-01, double 1.250000e-01>, !llfi_index !520
  %93 = shufflevector <2 x double> %84, <2 x double> %61, <2 x i32> <i32 1, i32 3>, !llfi_index !521
  %94 = fadd <2 x double> %84, %93, !llfi_index !522
  %95 = insertelement <2 x double> poison, double %89, i32 0, !llfi_index !523
  %96 = shufflevector <2 x double> %95, <2 x double> poison, <2 x i32> zeroinitializer, !llfi_index !524
  %97 = fsub <2 x double> %94, %96, !llfi_index !525
  %98 = fadd <2 x double> %96, %94, !llfi_index !526
  %99 = shufflevector <2 x double> %97, <2 x double> %98, <2 x i32> <i32 0, i32 3>, !llfi_index !527
  %100 = fmul <2 x double> %99, <double 1.250000e-01, double 1.250000e-01>, !llfi_index !528
  %101 = fsub double %48, %36, !llfi_index !529
  %102 = fsub double %46, %42, !llfi_index !530
  %103 = fadd double %102, %101, !llfi_index !531
  %104 = fsub double %50, %38, !llfi_index !532
  %105 = insertelement <2 x double> poison, double %44, i32 0, !llfi_index !533
  %106 = insertelement <2 x double> %105, double %103, i32 1, !llfi_index !534
  %107 = insertelement <2 x double> poison, double %40, i32 0, !llfi_index !535
  %108 = insertelement <2 x double> %107, double %104, i32 1, !llfi_index !536
  %109 = fsub <2 x double> %106, %108, !llfi_index !537
  %110 = fsub double %101, %102, !llfi_index !538
  %111 = fadd double %110, %104, !llfi_index !539
  %112 = extractelement <2 x double> %109, i32 0, !llfi_index !540
  %113 = fsub double %111, %112, !llfi_index !541
  %114 = fmul double %113, 1.250000e-01, !llfi_index !542
  %115 = fadd double %103, %104, !llfi_index !543
  %116 = insertelement <2 x double> poison, double %115, i32 0, !llfi_index !544
  %117 = shufflevector <2 x double> %116, <2 x double> %109, <2 x i32> <i32 0, i32 2>, !llfi_index !545
  %118 = fadd <2 x double> %109, %117, !llfi_index !546
  %119 = fsub <2 x double> %109, %117, !llfi_index !547
  %120 = shufflevector <2 x double> %118, <2 x double> %119, <2 x i32> <i32 0, i32 3>, !llfi_index !548
  %121 = fmul <2 x double> %120, <double 1.250000e-01, double 1.250000e-01>, !llfi_index !549
  %122 = fmul <2 x double> %100, %121, !llfi_index !550
  %123 = extractelement <2 x double> %92, i32 1, !llfi_index !551
  %124 = shufflevector <2 x double> %100, <2 x double> undef, <2 x i32> <i32 1, i32 undef>, !llfi_index !552
  %125 = shufflevector <2 x double> %124, <2 x double> %92, <2 x i32> <i32 0, i32 3>, !llfi_index !553
  %126 = insertelement <2 x double> poison, double %114, i32 0, !llfi_index !554
  %127 = shufflevector <2 x double> %126, <2 x double> %121, <2 x i32> <i32 0, i32 2>, !llfi_index !555
  %128 = fmul <2 x double> %125, %127, !llfi_index !556
  %129 = fsub <2 x double> %122, %128, !llfi_index !557
  %130 = fmul double %123, %114, !llfi_index !558
  %131 = extractelement <2 x double> %100, i32 0, !llfi_index !559
  %132 = extractelement <2 x double> %121, i32 1, !llfi_index !560
  %133 = fmul double %131, %132, !llfi_index !561
  %134 = fsub double %130, %133, !llfi_index !562
  %135 = fmul <2 x double> %75, %127, !llfi_index !563
  %136 = extractelement <2 x double> %92, i32 0, !llfi_index !564
  %137 = shufflevector <2 x double> %92, <2 x double> %75, <2 x i32> <i32 0, i32 2>, !llfi_index !565
  %138 = fmul <2 x double> %137, %121, !llfi_index !566
  %139 = fsub <2 x double> %135, %138, !llfi_index !567
  %140 = fmul double %136, %132, !llfi_index !568
  %141 = extractelement <2 x double> %75, i32 1, !llfi_index !569
  %142 = fmul double %141, %114, !llfi_index !570
  %143 = fsub double %140, %142, !llfi_index !571
  %144 = shufflevector <2 x double> %124, <2 x double> %75, <2 x i32> <i32 0, i32 2>, !llfi_index !572
  %145 = fmul <2 x double> %92, %144, !llfi_index !573
  %146 = fmul <2 x double> %75, %100, !llfi_index !574
  %147 = fsub <2 x double> %145, %146, !llfi_index !575
  %148 = fmul double %141, %131, !llfi_index !576
  %149 = fmul double %136, %123, !llfi_index !577
  %150 = fsub double %148, %149, !llfi_index !578
  %151 = extractelement <2 x double> %129, i32 0, !llfi_index !579
  %152 = fneg double %151, !llfi_index !580
  %153 = getelementptr inbounds [8 x double], [8 x double]* %3, i64 0, i64 0, !llfi_index !581
  %154 = extractelement <2 x double> %129, i32 1, !llfi_index !582
  %155 = insertelement <2 x double> poison, double %154, i32 0, !llfi_index !583
  %156 = insertelement <2 x double> %155, double %152, i32 1, !llfi_index !584
  %157 = fsub <2 x double> %156, %129, !llfi_index !585
  %158 = insertelement <2 x double> poison, double %134, i32 0, !llfi_index !586
  %159 = shufflevector <2 x double> %158, <2 x double> poison, <2 x i32> zeroinitializer, !llfi_index !587
  %160 = fsub <2 x double> %157, %159, !llfi_index !588
  %161 = extractelement <2 x double> %160, i32 1, !llfi_index !589
  store double %161, double* %153, align 8, !tbaa !345, !llfi_index !590
  %162 = fsub double %151, %154, !llfi_index !591
  %163 = fsub double %162, %134, !llfi_index !592
  %164 = getelementptr inbounds [8 x double], [8 x double]* %3, i64 0, i64 1, !llfi_index !593
  store double %163, double* %164, align 8, !tbaa !345, !llfi_index !594
  %165 = fadd double %151, %154, !llfi_index !595
  %166 = fsub double %165, %134, !llfi_index !596
  %167 = getelementptr inbounds [8 x double], [8 x double]* %3, i64 0, i64 2, !llfi_index !597
  store double %166, double* %167, align 8, !tbaa !345, !llfi_index !598
  %168 = getelementptr inbounds [8 x double], [8 x double]* %3, i64 0, i64 3, !llfi_index !599
  %169 = extractelement <2 x double> %160, i32 0, !llfi_index !600
  store double %169, double* %168, align 8, !tbaa !345, !llfi_index !601
  %170 = fneg double %166, !llfi_index !602
  %171 = getelementptr inbounds [8 x double], [8 x double]* %3, i64 0, i64 4, !llfi_index !603
  store double %170, double* %171, align 8, !tbaa !345, !llfi_index !604
  %172 = getelementptr inbounds [8 x double], [8 x double]* %3, i64 0, i64 5, !llfi_index !605
  %173 = fneg <2 x double> %160, !llfi_index !606
  %174 = bitcast double* %172 to <2 x double>*, !llfi_index !607
  store <2 x double> %173, <2 x double>* %174, align 8, !tbaa !345, !llfi_index !608
  %175 = fneg double %163, !llfi_index !609
  %176 = getelementptr inbounds [8 x double], [8 x double]* %3, i64 0, i64 7, !llfi_index !610
  store double %175, double* %176, align 8, !tbaa !345, !llfi_index !611
  %177 = extractelement <2 x double> %139, i32 0, !llfi_index !612
  %178 = fneg double %177, !llfi_index !613
  %179 = getelementptr inbounds [8 x double], [8 x double]* %3, i64 1, i64 0, !llfi_index !614
  %180 = extractelement <2 x double> %139, i32 1, !llfi_index !615
  %181 = insertelement <2 x double> poison, double %180, i32 0, !llfi_index !616
  %182 = insertelement <2 x double> %181, double %178, i32 1, !llfi_index !617
  %183 = fsub <2 x double> %182, %139, !llfi_index !618
  %184 = insertelement <2 x double> poison, double %143, i32 0, !llfi_index !619
  %185 = shufflevector <2 x double> %184, <2 x double> poison, <2 x i32> zeroinitializer, !llfi_index !620
  %186 = fsub <2 x double> %183, %185, !llfi_index !621
  %187 = extractelement <2 x double> %186, i32 1, !llfi_index !622
  store double %187, double* %179, align 8, !tbaa !345, !llfi_index !623
  %188 = fsub double %177, %180, !llfi_index !624
  %189 = fsub double %188, %143, !llfi_index !625
  %190 = getelementptr inbounds [8 x double], [8 x double]* %3, i64 1, i64 1, !llfi_index !626
  store double %189, double* %190, align 8, !tbaa !345, !llfi_index !627
  %191 = fadd double %177, %180, !llfi_index !628
  %192 = fsub double %191, %143, !llfi_index !629
  %193 = getelementptr inbounds [8 x double], [8 x double]* %3, i64 1, i64 2, !llfi_index !630
  store double %192, double* %193, align 8, !tbaa !345, !llfi_index !631
  %194 = getelementptr inbounds [8 x double], [8 x double]* %3, i64 1, i64 3, !llfi_index !632
  %195 = extractelement <2 x double> %186, i32 0, !llfi_index !633
  store double %195, double* %194, align 8, !tbaa !345, !llfi_index !634
  %196 = fneg double %192, !llfi_index !635
  %197 = getelementptr inbounds [8 x double], [8 x double]* %3, i64 1, i64 4, !llfi_index !636
  store double %196, double* %197, align 8, !tbaa !345, !llfi_index !637
  %198 = getelementptr inbounds [8 x double], [8 x double]* %3, i64 1, i64 5, !llfi_index !638
  %199 = fneg <2 x double> %186, !llfi_index !639
  %200 = bitcast double* %198 to <2 x double>*, !llfi_index !640
  store <2 x double> %199, <2 x double>* %200, align 8, !tbaa !345, !llfi_index !641
  %201 = fneg double %189, !llfi_index !642
  %202 = getelementptr inbounds [8 x double], [8 x double]* %3, i64 1, i64 7, !llfi_index !643
  store double %201, double* %202, align 8, !tbaa !345, !llfi_index !644
  %203 = extractelement <2 x double> %147, i32 0, !llfi_index !645
  %204 = fneg double %203, !llfi_index !646
  %205 = getelementptr inbounds [8 x double], [8 x double]* %3, i64 2, i64 0, !llfi_index !647
  %206 = extractelement <2 x double> %147, i32 1, !llfi_index !648
  %207 = insertelement <2 x double> poison, double %206, i32 0, !llfi_index !649
  %208 = insertelement <2 x double> %207, double %204, i32 1, !llfi_index !650
  %209 = fsub <2 x double> %208, %147, !llfi_index !651
  %210 = insertelement <2 x double> poison, double %150, i32 0, !llfi_index !652
  %211 = shufflevector <2 x double> %210, <2 x double> poison, <2 x i32> zeroinitializer, !llfi_index !653
  %212 = fsub <2 x double> %209, %211, !llfi_index !654
  %213 = extractelement <2 x double> %212, i32 1, !llfi_index !655
  store double %213, double* %205, align 8, !tbaa !345, !llfi_index !656
  %214 = fsub double %203, %206, !llfi_index !657
  %215 = fsub double %214, %150, !llfi_index !658
  %216 = getelementptr inbounds [8 x double], [8 x double]* %3, i64 2, i64 1, !llfi_index !659
  store double %215, double* %216, align 8, !tbaa !345, !llfi_index !660
  %217 = fadd double %203, %206, !llfi_index !661
  %218 = fsub double %217, %150, !llfi_index !662
  %219 = getelementptr inbounds [8 x double], [8 x double]* %3, i64 2, i64 2, !llfi_index !663
  store double %218, double* %219, align 8, !tbaa !345, !llfi_index !664
  %220 = getelementptr inbounds [8 x double], [8 x double]* %3, i64 2, i64 3, !llfi_index !665
  %221 = extractelement <2 x double> %212, i32 0, !llfi_index !666
  store double %221, double* %220, align 8, !tbaa !345, !llfi_index !667
  %222 = fneg double %218, !llfi_index !668
  %223 = getelementptr inbounds [8 x double], [8 x double]* %3, i64 2, i64 4, !llfi_index !669
  store double %222, double* %223, align 8, !tbaa !345, !llfi_index !670
  %224 = getelementptr inbounds [8 x double], [8 x double]* %3, i64 2, i64 5, !llfi_index !671
  %225 = fneg <2 x double> %212, !llfi_index !672
  %226 = bitcast double* %224 to <2 x double>*, !llfi_index !673
  store <2 x double> %225, <2 x double>* %226, align 8, !tbaa !345, !llfi_index !674
  %227 = fneg double %215, !llfi_index !675
  %228 = getelementptr inbounds [8 x double], [8 x double]* %3, i64 2, i64 7, !llfi_index !676
  store double %227, double* %228, align 8, !tbaa !345, !llfi_index !677
  %229 = fmul double %136, %154, !llfi_index !678
  %230 = fmul double %131, %180, !llfi_index !679
  %231 = fadd double %229, %230, !llfi_index !680
  %232 = fmul double %114, %206, !llfi_index !681
  %233 = fadd double %232, %231, !llfi_index !682
  %234 = fmul double %233, 8.000000e+00, !llfi_index !683
  store double %234, double* %4, align 8, !tbaa !345, !llfi_index !684
  ret void, !llfi_index !685
}

; Function Attrs: mustprogress nofree noinline norecurse nosync nounwind uwtable willreturn
define dso_local void @_Z17SumElemFaceNormalPdS_S_S_S_S_S_S_S_S_S_S_dddddddddddd(double* nocapture %0, double* nocapture %1, double* nocapture %2, double* nocapture %3, double* nocapture %4, double* nocapture %5, double* nocapture %6, double* nocapture %7, double* nocapture %8, double* nocapture %9, double* nocapture %10, double* nocapture %11, double %12, double %13, double %14, double %15, double %16, double %17, double %18, double %19, double %20, double %21, double %22, double %23) local_unnamed_addr #5 {
  %25 = fadd double %18, %21, !llfi_index !686
  %26 = fsub double %25, %15, !llfi_index !687
  %27 = fsub double %26, %12, !llfi_index !688
  %28 = fmul double %27, 5.000000e-01, !llfi_index !689
  %29 = fadd double %19, %22, !llfi_index !690
  %30 = fsub double %29, %16, !llfi_index !691
  %31 = fsub double %30, %13, !llfi_index !692
  %32 = fmul double %31, 5.000000e-01, !llfi_index !693
  %33 = fadd double %20, %23, !llfi_index !694
  %34 = fsub double %33, %17, !llfi_index !695
  %35 = fsub double %34, %14, !llfi_index !696
  %36 = fmul double %35, 5.000000e-01, !llfi_index !697
  %37 = fadd double %15, %18, !llfi_index !698
  %38 = fsub double %37, %21, !llfi_index !699
  %39 = fsub double %38, %12, !llfi_index !700
  %40 = fmul double %39, 5.000000e-01, !llfi_index !701
  %41 = fadd double %16, %19, !llfi_index !702
  %42 = fsub double %41, %22, !llfi_index !703
  %43 = fsub double %42, %13, !llfi_index !704
  %44 = fmul double %43, 5.000000e-01, !llfi_index !705
  %45 = fadd double %17, %20, !llfi_index !706
  %46 = fsub double %45, %23, !llfi_index !707
  %47 = fsub double %46, %14, !llfi_index !708
  %48 = fmul double %47, 5.000000e-01, !llfi_index !709
  %49 = fmul double %32, %48, !llfi_index !710
  %50 = fmul double %44, %36, !llfi_index !711
  %51 = fsub double %49, %50, !llfi_index !712
  %52 = fmul double %51, 2.500000e-01, !llfi_index !713
  %53 = fmul double %40, %36, !llfi_index !714
  %54 = fmul double %28, %48, !llfi_index !715
  %55 = fsub double %53, %54, !llfi_index !716
  %56 = fmul double %55, 2.500000e-01, !llfi_index !717
  %57 = fmul double %28, %44, !llfi_index !718
  %58 = fmul double %40, %32, !llfi_index !719
  %59 = fsub double %57, %58, !llfi_index !720
  %60 = fmul double %59, 2.500000e-01, !llfi_index !721
  %61 = load double, double* %0, align 8, !tbaa !345, !llfi_index !722
  %62 = fadd double %52, %61, !llfi_index !723
  store double %62, double* %0, align 8, !tbaa !345, !llfi_index !724
  %63 = load double, double* %3, align 8, !tbaa !345, !llfi_index !725
  %64 = fadd double %52, %63, !llfi_index !726
  store double %64, double* %3, align 8, !tbaa !345, !llfi_index !727
  %65 = load double, double* %6, align 8, !tbaa !345, !llfi_index !728
  %66 = fadd double %52, %65, !llfi_index !729
  store double %66, double* %6, align 8, !tbaa !345, !llfi_index !730
  %67 = load double, double* %9, align 8, !tbaa !345, !llfi_index !731
  %68 = fadd double %52, %67, !llfi_index !732
  store double %68, double* %9, align 8, !tbaa !345, !llfi_index !733
  %69 = load double, double* %1, align 8, !tbaa !345, !llfi_index !734
  %70 = fadd double %56, %69, !llfi_index !735
  store double %70, double* %1, align 8, !tbaa !345, !llfi_index !736
  %71 = load double, double* %4, align 8, !tbaa !345, !llfi_index !737
  %72 = fadd double %56, %71, !llfi_index !738
  store double %72, double* %4, align 8, !tbaa !345, !llfi_index !739
  %73 = load double, double* %7, align 8, !tbaa !345, !llfi_index !740
  %74 = fadd double %56, %73, !llfi_index !741
  store double %74, double* %7, align 8, !tbaa !345, !llfi_index !742
  %75 = load double, double* %10, align 8, !tbaa !345, !llfi_index !743
  %76 = fadd double %56, %75, !llfi_index !744
  store double %76, double* %10, align 8, !tbaa !345, !llfi_index !745
  %77 = load double, double* %2, align 8, !tbaa !345, !llfi_index !746
  %78 = fadd double %60, %77, !llfi_index !747
  store double %78, double* %2, align 8, !tbaa !345, !llfi_index !748
  %79 = load double, double* %5, align 8, !tbaa !345, !llfi_index !749
  %80 = fadd double %60, %79, !llfi_index !750
  store double %80, double* %5, align 8, !tbaa !345, !llfi_index !751
  %81 = load double, double* %8, align 8, !tbaa !345, !llfi_index !752
  %82 = fadd double %60, %81, !llfi_index !753
  store double %82, double* %8, align 8, !tbaa !345, !llfi_index !754
  %83 = load double, double* %11, align 8, !tbaa !345, !llfi_index !755
  %84 = fadd double %60, %83, !llfi_index !756
  store double %84, double* %11, align 8, !tbaa !345, !llfi_index !757
  ret void, !llfi_index !758
}

; Function Attrs: mustprogress nofree noinline norecurse nosync nounwind uwtable
define dso_local void @_Z19CalcElemNodeNormalsPdS_S_PKdS1_S1_(double* nocapture %0, double* nocapture %1, double* nocapture %2, double* nocapture readonly %3, double* nocapture readonly %4, double* nocapture readonly %5) local_unnamed_addr #6 {
  br label %122, !llfi_index !759

7:                                                ; preds = %122
  %8 = getelementptr inbounds double, double* %0, i64 1, !llfi_index !760
  %9 = getelementptr inbounds double, double* %1, i64 1, !llfi_index !761
  %10 = getelementptr inbounds double, double* %2, i64 1, !llfi_index !762
  %11 = getelementptr inbounds double, double* %0, i64 2, !llfi_index !763
  %12 = getelementptr inbounds double, double* %1, i64 2, !llfi_index !764
  %13 = getelementptr inbounds double, double* %2, i64 2, !llfi_index !765
  %14 = getelementptr inbounds double, double* %0, i64 3, !llfi_index !766
  %15 = getelementptr inbounds double, double* %1, i64 3, !llfi_index !767
  %16 = getelementptr inbounds double, double* %2, i64 3, !llfi_index !768
  %17 = load double, double* %3, align 8, !tbaa !345, !llfi_index !769
  %18 = load double, double* %4, align 8, !tbaa !345, !llfi_index !770
  %19 = load double, double* %5, align 8, !tbaa !345, !llfi_index !771
  %20 = getelementptr inbounds double, double* %3, i64 1, !llfi_index !772
  %21 = load double, double* %20, align 8, !tbaa !345, !llfi_index !773
  %22 = getelementptr inbounds double, double* %4, i64 1, !llfi_index !774
  %23 = load double, double* %22, align 8, !tbaa !345, !llfi_index !775
  %24 = getelementptr inbounds double, double* %5, i64 1, !llfi_index !776
  %25 = load double, double* %24, align 8, !tbaa !345, !llfi_index !777
  %26 = getelementptr inbounds double, double* %3, i64 2, !llfi_index !778
  %27 = load double, double* %26, align 8, !tbaa !345, !llfi_index !779
  %28 = getelementptr inbounds double, double* %4, i64 2, !llfi_index !780
  %29 = load double, double* %28, align 8, !tbaa !345, !llfi_index !781
  %30 = getelementptr inbounds double, double* %5, i64 2, !llfi_index !782
  %31 = load double, double* %30, align 8, !tbaa !345, !llfi_index !783
  %32 = getelementptr inbounds double, double* %3, i64 3, !llfi_index !784
  %33 = load double, double* %32, align 8, !tbaa !345, !llfi_index !785
  %34 = getelementptr inbounds double, double* %4, i64 3, !llfi_index !786
  %35 = load double, double* %34, align 8, !tbaa !345, !llfi_index !787
  %36 = getelementptr inbounds double, double* %5, i64 3, !llfi_index !788
  %37 = load double, double* %36, align 8, !tbaa !345, !llfi_index !789
  tail call void @_Z17SumElemFaceNormalPdS_S_S_S_S_S_S_S_S_S_S_dddddddddddd(double* nonnull %0, double* nonnull %1, double* nonnull %2, double* nonnull %8, double* nonnull %9, double* nonnull %10, double* nonnull %11, double* nonnull %12, double* nonnull %13, double* nonnull %14, double* nonnull %15, double* nonnull %16, double %17, double %18, double %19, double %21, double %23, double %25, double %27, double %29, double %31, double %33, double %35, double %37), !llfi_index !790
  %38 = getelementptr inbounds double, double* %0, i64 4, !llfi_index !791
  %39 = getelementptr inbounds double, double* %1, i64 4, !llfi_index !792
  %40 = getelementptr inbounds double, double* %2, i64 4, !llfi_index !793
  %41 = getelementptr inbounds double, double* %0, i64 5, !llfi_index !794
  %42 = getelementptr inbounds double, double* %1, i64 5, !llfi_index !795
  %43 = getelementptr inbounds double, double* %2, i64 5, !llfi_index !796
  %44 = load double, double* %3, align 8, !tbaa !345, !llfi_index !797
  %45 = load double, double* %4, align 8, !tbaa !345, !llfi_index !798
  %46 = load double, double* %5, align 8, !tbaa !345, !llfi_index !799
  %47 = getelementptr inbounds double, double* %3, i64 4, !llfi_index !800
  %48 = load double, double* %47, align 8, !tbaa !345, !llfi_index !801
  %49 = getelementptr inbounds double, double* %4, i64 4, !llfi_index !802
  %50 = load double, double* %49, align 8, !tbaa !345, !llfi_index !803
  %51 = getelementptr inbounds double, double* %5, i64 4, !llfi_index !804
  %52 = load double, double* %51, align 8, !tbaa !345, !llfi_index !805
  %53 = getelementptr inbounds double, double* %3, i64 5, !llfi_index !806
  %54 = load double, double* %53, align 8, !tbaa !345, !llfi_index !807
  %55 = getelementptr inbounds double, double* %4, i64 5, !llfi_index !808
  %56 = load double, double* %55, align 8, !tbaa !345, !llfi_index !809
  %57 = getelementptr inbounds double, double* %5, i64 5, !llfi_index !810
  %58 = load double, double* %57, align 8, !tbaa !345, !llfi_index !811
  %59 = load double, double* %20, align 8, !tbaa !345, !llfi_index !812
  %60 = load double, double* %22, align 8, !tbaa !345, !llfi_index !813
  %61 = load double, double* %24, align 8, !tbaa !345, !llfi_index !814
  tail call void @_Z17SumElemFaceNormalPdS_S_S_S_S_S_S_S_S_S_S_dddddddddddd(double* nonnull %0, double* nonnull %1, double* nonnull %2, double* nonnull %38, double* nonnull %39, double* nonnull %40, double* nonnull %41, double* nonnull %42, double* nonnull %43, double* nonnull %8, double* nonnull %9, double* nonnull %10, double %44, double %45, double %46, double %48, double %50, double %52, double %54, double %56, double %58, double %59, double %60, double %61), !llfi_index !815
  %62 = getelementptr inbounds double, double* %0, i64 6, !llfi_index !816
  %63 = getelementptr inbounds double, double* %1, i64 6, !llfi_index !817
  %64 = getelementptr inbounds double, double* %2, i64 6, !llfi_index !818
  %65 = load double, double* %20, align 8, !tbaa !345, !llfi_index !819
  %66 = load double, double* %22, align 8, !tbaa !345, !llfi_index !820
  %67 = load double, double* %24, align 8, !tbaa !345, !llfi_index !821
  %68 = load double, double* %53, align 8, !tbaa !345, !llfi_index !822
  %69 = load double, double* %55, align 8, !tbaa !345, !llfi_index !823
  %70 = load double, double* %57, align 8, !tbaa !345, !llfi_index !824
  %71 = getelementptr inbounds double, double* %3, i64 6, !llfi_index !825
  %72 = load double, double* %71, align 8, !tbaa !345, !llfi_index !826
  %73 = getelementptr inbounds double, double* %4, i64 6, !llfi_index !827
  %74 = load double, double* %73, align 8, !tbaa !345, !llfi_index !828
  %75 = getelementptr inbounds double, double* %5, i64 6, !llfi_index !829
  %76 = load double, double* %75, align 8, !tbaa !345, !llfi_index !830
  %77 = load double, double* %26, align 8, !tbaa !345, !llfi_index !831
  %78 = load double, double* %28, align 8, !tbaa !345, !llfi_index !832
  %79 = load double, double* %30, align 8, !tbaa !345, !llfi_index !833
  tail call void @_Z17SumElemFaceNormalPdS_S_S_S_S_S_S_S_S_S_S_dddddddddddd(double* nonnull %8, double* nonnull %9, double* nonnull %10, double* nonnull %41, double* nonnull %42, double* nonnull %43, double* nonnull %62, double* nonnull %63, double* nonnull %64, double* nonnull %11, double* nonnull %12, double* nonnull %13, double %65, double %66, double %67, double %68, double %69, double %70, double %72, double %74, double %76, double %77, double %78, double %79), !llfi_index !834
  %80 = getelementptr inbounds double, double* %0, i64 7, !llfi_index !835
  %81 = getelementptr inbounds double, double* %1, i64 7, !llfi_index !836
  %82 = getelementptr inbounds double, double* %2, i64 7, !llfi_index !837
  %83 = load double, double* %26, align 8, !tbaa !345, !llfi_index !838
  %84 = load double, double* %28, align 8, !tbaa !345, !llfi_index !839
  %85 = load double, double* %30, align 8, !tbaa !345, !llfi_index !840
  %86 = load double, double* %71, align 8, !tbaa !345, !llfi_index !841
  %87 = load double, double* %73, align 8, !tbaa !345, !llfi_index !842
  %88 = load double, double* %75, align 8, !tbaa !345, !llfi_index !843
  %89 = getelementptr inbounds double, double* %3, i64 7, !llfi_index !844
  %90 = load double, double* %89, align 8, !tbaa !345, !llfi_index !845
  %91 = getelementptr inbounds double, double* %4, i64 7, !llfi_index !846
  %92 = load double, double* %91, align 8, !tbaa !345, !llfi_index !847
  %93 = getelementptr inbounds double, double* %5, i64 7, !llfi_index !848
  %94 = load double, double* %93, align 8, !tbaa !345, !llfi_index !849
  %95 = load double, double* %32, align 8, !tbaa !345, !llfi_index !850
  %96 = load double, double* %34, align 8, !tbaa !345, !llfi_index !851
  %97 = load double, double* %36, align 8, !tbaa !345, !llfi_index !852
  tail call void @_Z17SumElemFaceNormalPdS_S_S_S_S_S_S_S_S_S_S_dddddddddddd(double* nonnull %11, double* nonnull %12, double* nonnull %13, double* nonnull %62, double* nonnull %63, double* nonnull %64, double* nonnull %80, double* nonnull %81, double* nonnull %82, double* nonnull %14, double* nonnull %15, double* nonnull %16, double %83, double %84, double %85, double %86, double %87, double %88, double %90, double %92, double %94, double %95, double %96, double %97), !llfi_index !853
  %98 = load double, double* %32, align 8, !tbaa !345, !llfi_index !854
  %99 = load double, double* %34, align 8, !tbaa !345, !llfi_index !855
  %100 = load double, double* %36, align 8, !tbaa !345, !llfi_index !856
  %101 = load double, double* %89, align 8, !tbaa !345, !llfi_index !857
  %102 = load double, double* %91, align 8, !tbaa !345, !llfi_index !858
  %103 = load double, double* %93, align 8, !tbaa !345, !llfi_index !859
  %104 = load double, double* %47, align 8, !tbaa !345, !llfi_index !860
  %105 = load double, double* %49, align 8, !tbaa !345, !llfi_index !861
  %106 = load double, double* %51, align 8, !tbaa !345, !llfi_index !862
  %107 = load double, double* %3, align 8, !tbaa !345, !llfi_index !863
  %108 = load double, double* %4, align 8, !tbaa !345, !llfi_index !864
  %109 = load double, double* %5, align 8, !tbaa !345, !llfi_index !865
  tail call void @_Z17SumElemFaceNormalPdS_S_S_S_S_S_S_S_S_S_S_dddddddddddd(double* nonnull %14, double* nonnull %15, double* nonnull %16, double* nonnull %80, double* nonnull %81, double* nonnull %82, double* nonnull %38, double* nonnull %39, double* nonnull %40, double* nonnull %0, double* nonnull %1, double* nonnull %2, double %98, double %99, double %100, double %101, double %102, double %103, double %104, double %105, double %106, double %107, double %108, double %109), !llfi_index !866
  %110 = load double, double* %47, align 8, !tbaa !345, !llfi_index !867
  %111 = load double, double* %49, align 8, !tbaa !345, !llfi_index !868
  %112 = load double, double* %51, align 8, !tbaa !345, !llfi_index !869
  %113 = load double, double* %89, align 8, !tbaa !345, !llfi_index !870
  %114 = load double, double* %91, align 8, !tbaa !345, !llfi_index !871
  %115 = load double, double* %93, align 8, !tbaa !345, !llfi_index !872
  %116 = load double, double* %71, align 8, !tbaa !345, !llfi_index !873
  %117 = load double, double* %73, align 8, !tbaa !345, !llfi_index !874
  %118 = load double, double* %75, align 8, !tbaa !345, !llfi_index !875
  %119 = load double, double* %53, align 8, !tbaa !345, !llfi_index !876
  %120 = load double, double* %55, align 8, !tbaa !345, !llfi_index !877
  %121 = load double, double* %57, align 8, !tbaa !345, !llfi_index !878
  tail call void @_Z17SumElemFaceNormalPdS_S_S_S_S_S_S_S_S_S_S_dddddddddddd(double* nonnull %38, double* nonnull %39, double* nonnull %40, double* nonnull %80, double* nonnull %81, double* nonnull %82, double* nonnull %62, double* nonnull %63, double* nonnull %64, double* nonnull %41, double* nonnull %42, double* nonnull %43, double %110, double %111, double %112, double %113, double %114, double %115, double %116, double %117, double %118, double %119, double %120, double %121), !llfi_index !879
  ret void, !llfi_index !880

122:                                              ; preds = %122, %6
  %123 = phi i64 [ 0, %6 ], [ %127, %122 ], !llfi_index !881
  %124 = getelementptr inbounds double, double* %0, i64 %123, !llfi_index !882
  store double 0.000000e+00, double* %124, align 8, !tbaa !345, !llfi_index !883
  %125 = getelementptr inbounds double, double* %1, i64 %123, !llfi_index !884
  store double 0.000000e+00, double* %125, align 8, !tbaa !345, !llfi_index !885
  %126 = getelementptr inbounds double, double* %2, i64 %123, !llfi_index !886
  store double 0.000000e+00, double* %126, align 8, !tbaa !345, !llfi_index !887
  %127 = add nuw nsw i64 %123, 1, !llfi_index !888
  %128 = icmp eq i64 %127, 8, !llfi_index !889
  br i1 %128, label %7, label %122, !llvm.loop !890, !llfi_index !891
}

; Function Attrs: mustprogress nofree noinline norecurse nosync nounwind uwtable willreturn
define dso_local void @_Z27SumElemStressesToNodeForcesPA8_KddddPdS2_S2_([8 x double]* nocapture readonly %0, double %1, double %2, double %3, double* nocapture %4, double* nocapture %5, double* nocapture %6) local_unnamed_addr #5 {
  %8 = bitcast [8 x double]* %0 to <2 x double>*, !llfi_index !892
  %9 = load <2 x double>, <2 x double>* %8, align 8, !tbaa !345, !llfi_index !893
  %10 = getelementptr inbounds [8 x double], [8 x double]* %0, i64 0, i64 2, !llfi_index !894
  %11 = bitcast double* %10 to <2 x double>*, !llfi_index !895
  %12 = load <2 x double>, <2 x double>* %11, align 8, !tbaa !345, !llfi_index !896
  %13 = getelementptr inbounds [8 x double], [8 x double]* %0, i64 0, i64 4, !llfi_index !897
  %14 = bitcast double* %13 to <2 x double>*, !llfi_index !898
  %15 = load <2 x double>, <2 x double>* %14, align 8, !tbaa !345, !llfi_index !899
  %16 = getelementptr inbounds [8 x double], [8 x double]* %0, i64 0, i64 6, !llfi_index !900
  %17 = bitcast double* %16 to <2 x double>*, !llfi_index !901
  %18 = load <2 x double>, <2 x double>* %17, align 8, !tbaa !345, !llfi_index !902
  %19 = getelementptr inbounds [8 x double], [8 x double]* %0, i64 1, i64 0, !llfi_index !903
  %20 = bitcast double* %19 to <2 x double>*, !llfi_index !904
  %21 = load <2 x double>, <2 x double>* %20, align 8, !tbaa !345, !llfi_index !905
  %22 = getelementptr inbounds [8 x double], [8 x double]* %0, i64 1, i64 2, !llfi_index !906
  %23 = bitcast double* %22 to <2 x double>*, !llfi_index !907
  %24 = load <2 x double>, <2 x double>* %23, align 8, !tbaa !345, !llfi_index !908
  %25 = getelementptr inbounds [8 x double], [8 x double]* %0, i64 1, i64 4, !llfi_index !909
  %26 = bitcast double* %25 to <2 x double>*, !llfi_index !910
  %27 = load <2 x double>, <2 x double>* %26, align 8, !tbaa !345, !llfi_index !911
  %28 = getelementptr inbounds [8 x double], [8 x double]* %0, i64 1, i64 6, !llfi_index !912
  %29 = bitcast double* %28 to <2 x double>*, !llfi_index !913
  %30 = load <2 x double>, <2 x double>* %29, align 8, !tbaa !345, !llfi_index !914
  %31 = getelementptr inbounds [8 x double], [8 x double]* %0, i64 2, i64 0, !llfi_index !915
  %32 = bitcast double* %31 to <2 x double>*, !llfi_index !916
  %33 = load <2 x double>, <2 x double>* %32, align 8, !tbaa !345, !llfi_index !917
  %34 = getelementptr inbounds [8 x double], [8 x double]* %0, i64 2, i64 2, !llfi_index !918
  %35 = bitcast double* %34 to <2 x double>*, !llfi_index !919
  %36 = load <2 x double>, <2 x double>* %35, align 8, !tbaa !345, !llfi_index !920
  %37 = getelementptr inbounds [8 x double], [8 x double]* %0, i64 2, i64 4, !llfi_index !921
  %38 = bitcast double* %37 to <2 x double>*, !llfi_index !922
  %39 = load <2 x double>, <2 x double>* %38, align 8, !tbaa !345, !llfi_index !923
  %40 = getelementptr inbounds [8 x double], [8 x double]* %0, i64 2, i64 6, !llfi_index !924
  %41 = bitcast double* %40 to <2 x double>*, !llfi_index !925
  %42 = load <2 x double>, <2 x double>* %41, align 8, !tbaa !345, !llfi_index !926
  %43 = fneg <2 x double> %9, !llfi_index !927
  %44 = insertelement <2 x double> poison, double %1, i32 0, !llfi_index !928
  %45 = shufflevector <2 x double> %44, <2 x double> poison, <2 x i32> zeroinitializer, !llfi_index !929
  %46 = fmul <2 x double> %45, %43, !llfi_index !930
  %47 = bitcast double* %4 to <2 x double>*, !llfi_index !931
  store <2 x double> %46, <2 x double>* %47, align 8, !tbaa !345, !llfi_index !932
  %48 = getelementptr inbounds double, double* %4, i64 2, !llfi_index !933
  %49 = fneg <2 x double> %12, !llfi_index !934
  %50 = fmul <2 x double> %45, %49, !llfi_index !935
  %51 = bitcast double* %48 to <2 x double>*, !llfi_index !936
  store <2 x double> %50, <2 x double>* %51, align 8, !tbaa !345, !llfi_index !937
  %52 = getelementptr inbounds double, double* %4, i64 4, !llfi_index !938
  %53 = fneg <2 x double> %15, !llfi_index !939
  %54 = fmul <2 x double> %45, %53, !llfi_index !940
  %55 = bitcast double* %52 to <2 x double>*, !llfi_index !941
  store <2 x double> %54, <2 x double>* %55, align 8, !tbaa !345, !llfi_index !942
  %56 = getelementptr inbounds double, double* %4, i64 6, !llfi_index !943
  %57 = fneg <2 x double> %18, !llfi_index !944
  %58 = fmul <2 x double> %45, %57, !llfi_index !945
  %59 = bitcast double* %56 to <2 x double>*, !llfi_index !946
  store <2 x double> %58, <2 x double>* %59, align 8, !tbaa !345, !llfi_index !947
  %60 = fneg <2 x double> %21, !llfi_index !948
  %61 = insertelement <2 x double> poison, double %2, i32 0, !llfi_index !949
  %62 = shufflevector <2 x double> %61, <2 x double> poison, <2 x i32> zeroinitializer, !llfi_index !950
  %63 = fmul <2 x double> %62, %60, !llfi_index !951
  %64 = bitcast double* %5 to <2 x double>*, !llfi_index !952
  store <2 x double> %63, <2 x double>* %64, align 8, !tbaa !345, !llfi_index !953
  %65 = getelementptr inbounds double, double* %5, i64 2, !llfi_index !954
  %66 = fneg <2 x double> %24, !llfi_index !955
  %67 = fmul <2 x double> %62, %66, !llfi_index !956
  %68 = bitcast double* %65 to <2 x double>*, !llfi_index !957
  store <2 x double> %67, <2 x double>* %68, align 8, !tbaa !345, !llfi_index !958
  %69 = getelementptr inbounds double, double* %5, i64 4, !llfi_index !959
  %70 = fneg <2 x double> %27, !llfi_index !960
  %71 = fmul <2 x double> %62, %70, !llfi_index !961
  %72 = bitcast double* %69 to <2 x double>*, !llfi_index !962
  store <2 x double> %71, <2 x double>* %72, align 8, !tbaa !345, !llfi_index !963
  %73 = getelementptr inbounds double, double* %5, i64 6, !llfi_index !964
  %74 = fneg <2 x double> %30, !llfi_index !965
  %75 = fmul <2 x double> %62, %74, !llfi_index !966
  %76 = bitcast double* %73 to <2 x double>*, !llfi_index !967
  store <2 x double> %75, <2 x double>* %76, align 8, !tbaa !345, !llfi_index !968
  %77 = fneg <2 x double> %33, !llfi_index !969
  %78 = insertelement <2 x double> poison, double %3, i32 0, !llfi_index !970
  %79 = shufflevector <2 x double> %78, <2 x double> poison, <2 x i32> zeroinitializer, !llfi_index !971
  %80 = fmul <2 x double> %79, %77, !llfi_index !972
  %81 = bitcast double* %6 to <2 x double>*, !llfi_index !973
  store <2 x double> %80, <2 x double>* %81, align 8, !tbaa !345, !llfi_index !974
  %82 = getelementptr inbounds double, double* %6, i64 2, !llfi_index !975
  %83 = fneg <2 x double> %36, !llfi_index !976
  %84 = fmul <2 x double> %79, %83, !llfi_index !977
  %85 = bitcast double* %82 to <2 x double>*, !llfi_index !978
  store <2 x double> %84, <2 x double>* %85, align 8, !tbaa !345, !llfi_index !979
  %86 = getelementptr inbounds double, double* %6, i64 4, !llfi_index !980
  %87 = fneg <2 x double> %39, !llfi_index !981
  %88 = fmul <2 x double> %79, %87, !llfi_index !982
  %89 = bitcast double* %86 to <2 x double>*, !llfi_index !983
  store <2 x double> %88, <2 x double>* %89, align 8, !tbaa !345, !llfi_index !984
  %90 = getelementptr inbounds double, double* %6, i64 6, !llfi_index !985
  %91 = fneg <2 x double> %42, !llfi_index !986
  %92 = fmul <2 x double> %79, %91, !llfi_index !987
  %93 = bitcast double* %90 to <2 x double>*, !llfi_index !988
  store <2 x double> %92, <2 x double>* %93, align 8, !tbaa !345, !llfi_index !989
  ret void, !llfi_index !990
}

; Function Attrs: mustprogress nofree noinline nosync nounwind uwtable
define dso_local void @_Z23IntegrateStressForElemsiPdS_S_S_(i32 %0, double* nocapture readonly %1, double* nocapture readonly %2, double* nocapture readonly %3, double* nocapture %4) local_unnamed_addr #7 {
  %6 = alloca [3 x [8 x double]], align 16, !llfi_index !991
  %7 = alloca [8 x double], align 16, !llfi_index !992
  %8 = alloca [8 x double], align 16, !llfi_index !993
  %9 = alloca [8 x double], align 16, !llfi_index !994
  %10 = alloca [8 x double], align 16, !llfi_index !995
  %11 = alloca [8 x double], align 16, !llfi_index !996
  %12 = alloca [8 x double], align 16, !llfi_index !997
  %13 = bitcast [3 x [8 x double]]* %6 to i8*, !llfi_index !998
  call void @llvm.lifetime.start.p0i8(i64 192, i8* nonnull %13) #2, !llfi_index !999
  %14 = bitcast [8 x double]* %7 to i8*, !llfi_index !1000
  call void @llvm.lifetime.start.p0i8(i64 64, i8* nonnull %14) #2, !llfi_index !1001
  %15 = bitcast [8 x double]* %8 to i8*, !llfi_index !1002
  call void @llvm.lifetime.start.p0i8(i64 64, i8* nonnull %15) #2, !llfi_index !1003
  %16 = bitcast [8 x double]* %9 to i8*, !llfi_index !1004
  call void @llvm.lifetime.start.p0i8(i64 64, i8* nonnull %16) #2, !llfi_index !1005
  %17 = bitcast [8 x double]* %10 to i8*, !llfi_index !1006
  call void @llvm.lifetime.start.p0i8(i64 64, i8* nonnull %17) #2, !llfi_index !1007
  %18 = bitcast [8 x double]* %11 to i8*, !llfi_index !1008
  call void @llvm.lifetime.start.p0i8(i64 64, i8* nonnull %18) #2, !llfi_index !1009
  %19 = bitcast [8 x double]* %12 to i8*, !llfi_index !1010
  call void @llvm.lifetime.start.p0i8(i64 64, i8* nonnull %19) #2, !llfi_index !1011
  %20 = getelementptr inbounds [8 x double], [8 x double]* %7, i64 0, i64 0, !llfi_index !1012
  %21 = getelementptr inbounds [8 x double], [8 x double]* %8, i64 0, i64 0, !llfi_index !1013
  %22 = getelementptr inbounds [8 x double], [8 x double]* %9, i64 0, i64 0, !llfi_index !1014
  %23 = getelementptr inbounds [3 x [8 x double]], [3 x [8 x double]]* %6, i64 0, i64 0, !llfi_index !1015
  %24 = getelementptr inbounds [3 x [8 x double]], [3 x [8 x double]]* %6, i64 0, i64 0, i64 0, !llfi_index !1016
  %25 = getelementptr inbounds [3 x [8 x double]], [3 x [8 x double]]* %6, i64 0, i64 1, i64 0, !llfi_index !1017
  %26 = getelementptr inbounds [3 x [8 x double]], [3 x [8 x double]]* %6, i64 0, i64 2, i64 0, !llfi_index !1018
  %27 = getelementptr inbounds [8 x double], [8 x double]* %10, i64 0, i64 0, !llfi_index !1019
  %28 = getelementptr inbounds [8 x double], [8 x double]* %11, i64 0, i64 0, !llfi_index !1020
  %29 = getelementptr inbounds [8 x double], [8 x double]* %12, i64 0, i64 0, !llfi_index !1021
  %30 = icmp sgt i32 %0, 0, !llfi_index !1022
  br i1 %30, label %31, label %.loopexit, !llfi_index !1023

31:                                               ; preds = %5
  %32 = zext i32 %0 to i64, !llfi_index !1024
  br label %33, !llfi_index !1025

.loopexit:                                        ; preds = %68, %5
  call void @llvm.lifetime.end.p0i8(i64 64, i8* nonnull %19) #2, !llfi_index !1026
  call void @llvm.lifetime.end.p0i8(i64 64, i8* nonnull %18) #2, !llfi_index !1027
  call void @llvm.lifetime.end.p0i8(i64 64, i8* nonnull %17) #2, !llfi_index !1028
  call void @llvm.lifetime.end.p0i8(i64 64, i8* nonnull %16) #2, !llfi_index !1029
  call void @llvm.lifetime.end.p0i8(i64 64, i8* nonnull %15) #2, !llfi_index !1030
  call void @llvm.lifetime.end.p0i8(i64 64, i8* nonnull %14) #2, !llfi_index !1031
  call void @llvm.lifetime.end.p0i8(i64 192, i8* nonnull %13) #2, !llfi_index !1032
  ret void, !llfi_index !1033

33:                                               ; preds = %68, %31
  %34 = phi i64 [ 0, %31 ], [ %69, %68 ], !llfi_index !1034
  %35 = shl nsw i64 %34, 3, !llfi_index !1035
  %36 = load i32*, i32** getelementptr inbounds (%struct.Mesh, %struct.Mesh* @mesh, i64 0, i32 17, i32 0, i32 0, i32 0, i32 0), align 8, !tbaa !168, !llfi_index !1036
  %37 = getelementptr inbounds i32, i32* %36, i64 %35, !llfi_index !1037
  %38 = load double*, double** getelementptr inbounds (%struct.Mesh, %struct.Mesh* @mesh, i64 0, i32 0, i32 0, i32 0, i32 0, i32 0), align 8, !tbaa !9, !llfi_index !1038
  %39 = load double*, double** getelementptr inbounds (%struct.Mesh, %struct.Mesh* @mesh, i64 0, i32 1, i32 0, i32 0, i32 0, i32 0), align 8, !tbaa !9, !llfi_index !1039
  %40 = load double*, double** getelementptr inbounds (%struct.Mesh, %struct.Mesh* @mesh, i64 0, i32 2, i32 0, i32 0, i32 0, i32 0), align 8, !tbaa !9, !llfi_index !1040
  br label %52, !llfi_index !1041

41:                                               ; preds = %52
  %42 = getelementptr inbounds double, double* %4, i64 %34, !llfi_index !1042
  call void @_Z32CalcElemShapeFunctionDerivativesPKdS0_S0_PA8_dPd(double* nonnull %20, double* nonnull %21, double* nonnull %22, [8 x double]* nonnull %23, double* %42), !llfi_index !1043
  call void @_Z19CalcElemNodeNormalsPdS_S_PKdS1_S1_(double* nonnull %24, double* nonnull %25, double* nonnull %26, double* nonnull %20, double* nonnull %21, double* nonnull %22), !llfi_index !1044
  %43 = getelementptr inbounds double, double* %1, i64 %34, !llfi_index !1045
  %44 = load double, double* %43, align 8, !tbaa !345, !llfi_index !1046
  %45 = getelementptr inbounds double, double* %2, i64 %34, !llfi_index !1047
  %46 = load double, double* %45, align 8, !tbaa !345, !llfi_index !1048
  %47 = getelementptr inbounds double, double* %3, i64 %34, !llfi_index !1049
  %48 = load double, double* %47, align 8, !tbaa !345, !llfi_index !1050
  call void @_Z27SumElemStressesToNodeForcesPA8_KddddPdS2_S2_([8 x double]* nonnull %23, double %44, double %46, double %48, double* nonnull %27, double* nonnull %28, double* nonnull %29), !llfi_index !1051
  %49 = load double*, double** getelementptr inbounds (%struct.Mesh, %struct.Mesh* @mesh, i64 0, i32 9, i32 0, i32 0, i32 0, i32 0), align 8, !tbaa !9, !llfi_index !1052
  %50 = load double*, double** getelementptr inbounds (%struct.Mesh, %struct.Mesh* @mesh, i64 0, i32 10, i32 0, i32 0, i32 0, i32 0), align 8, !tbaa !9, !llfi_index !1053
  %51 = load double*, double** getelementptr inbounds (%struct.Mesh, %struct.Mesh* @mesh, i64 0, i32 11, i32 0, i32 0, i32 0, i32 0), align 8, !tbaa !9, !llfi_index !1054
  br label %71, !llfi_index !1055

52:                                               ; preds = %52, %33
  %53 = phi i64 [ 0, %33 ], [ %66, %52 ], !llfi_index !1056
  %54 = getelementptr inbounds i32, i32* %37, i64 %53, !llfi_index !1057
  %55 = load i32, i32* %54, align 4, !tbaa !404, !llfi_index !1058
  %56 = sext i32 %55 to i64, !llfi_index !1059
  %57 = getelementptr inbounds double, double* %38, i64 %56, !llfi_index !1060
  %58 = load double, double* %57, align 8, !tbaa !345, !llfi_index !1061
  %59 = getelementptr inbounds [8 x double], [8 x double]* %7, i64 0, i64 %53, !llfi_index !1062
  store double %58, double* %59, align 8, !tbaa !345, !llfi_index !1063
  %60 = getelementptr inbounds double, double* %39, i64 %56, !llfi_index !1064
  %61 = load double, double* %60, align 8, !tbaa !345, !llfi_index !1065
  %62 = getelementptr inbounds [8 x double], [8 x double]* %8, i64 0, i64 %53, !llfi_index !1066
  store double %61, double* %62, align 8, !tbaa !345, !llfi_index !1067
  %63 = getelementptr inbounds double, double* %40, i64 %56, !llfi_index !1068
  %64 = load double, double* %63, align 8, !tbaa !345, !llfi_index !1069
  %65 = getelementptr inbounds [8 x double], [8 x double]* %9, i64 0, i64 %53, !llfi_index !1070
  store double %64, double* %65, align 8, !tbaa !345, !llfi_index !1071
  %66 = add nuw nsw i64 %53, 1, !llfi_index !1072
  %67 = icmp eq i64 %66, 8, !llfi_index !1073
  br i1 %67, label %41, label %52, !llvm.loop !1074, !llfi_index !1075

68:                                               ; preds = %71
  %69 = add nuw nsw i64 %34, 1, !llfi_index !1076
  %70 = icmp eq i64 %69, %32, !llfi_index !1077
  br i1 %70, label %.loopexit, label %33, !llvm.loop !1078, !llfi_index !1079

71:                                               ; preds = %71, %41
  %72 = phi i64 [ 0, %41 ], [ %91, %71 ], !llfi_index !1080
  %73 = getelementptr inbounds i32, i32* %37, i64 %72, !llfi_index !1081
  %74 = load i32, i32* %73, align 4, !tbaa !404, !llfi_index !1082
  %75 = getelementptr inbounds [8 x double], [8 x double]* %10, i64 0, i64 %72, !llfi_index !1083
  %76 = load double, double* %75, align 8, !tbaa !345, !llfi_index !1084
  %77 = sext i32 %74 to i64, !llfi_index !1085
  %78 = getelementptr inbounds double, double* %49, i64 %77, !llfi_index !1086
  %79 = load double, double* %78, align 8, !tbaa !345, !llfi_index !1087
  %80 = fadd double %76, %79, !llfi_index !1088
  store double %80, double* %78, align 8, !tbaa !345, !llfi_index !1089
  %81 = getelementptr inbounds [8 x double], [8 x double]* %11, i64 0, i64 %72, !llfi_index !1090
  %82 = load double, double* %81, align 8, !tbaa !345, !llfi_index !1091
  %83 = getelementptr inbounds double, double* %50, i64 %77, !llfi_index !1092
  %84 = load double, double* %83, align 8, !tbaa !345, !llfi_index !1093
  %85 = fadd double %82, %84, !llfi_index !1094
  store double %85, double* %83, align 8, !tbaa !345, !llfi_index !1095
  %86 = getelementptr inbounds [8 x double], [8 x double]* %12, i64 0, i64 %72, !llfi_index !1096
  %87 = load double, double* %86, align 8, !tbaa !345, !llfi_index !1097
  %88 = getelementptr inbounds double, double* %51, i64 %77, !llfi_index !1098
  %89 = load double, double* %88, align 8, !tbaa !345, !llfi_index !1099
  %90 = fadd double %87, %89, !llfi_index !1100
  store double %90, double* %88, align 8, !tbaa !345, !llfi_index !1101
  %91 = add nuw nsw i64 %72, 1, !llfi_index !1102
  %92 = icmp eq i64 %91, 8, !llfi_index !1103
  br i1 %92, label %68, label %71, !llvm.loop !1104, !llfi_index !1105
}

; Function Attrs: argmemonly nofree nosync nounwind willreturn
declare void @llvm.lifetime.start.p0i8(i64 immarg, i8* nocapture) #8

; Function Attrs: argmemonly nofree nosync nounwind willreturn
declare void @llvm.lifetime.end.p0i8(i64 immarg, i8* nocapture) #8

; Function Attrs: mustprogress nofree noinline norecurse nosync nounwind uwtable willreturn
define dso_local void @_Z29CollectDomainNodesToElemNodesPKiPdS1_S1_(i32* nocapture readonly %0, double* nocapture %1, double* nocapture %2, double* nocapture %3) local_unnamed_addr #5 {
  %5 = load i32, i32* %0, align 4, !tbaa !404, !llfi_index !1106
  %6 = getelementptr inbounds i32, i32* %0, i64 1, !llfi_index !1107
  %7 = load i32, i32* %6, align 4, !tbaa !404, !llfi_index !1108
  %8 = getelementptr inbounds i32, i32* %0, i64 2, !llfi_index !1109
  %9 = load i32, i32* %8, align 4, !tbaa !404, !llfi_index !1110
  %10 = getelementptr inbounds i32, i32* %0, i64 3, !llfi_index !1111
  %11 = load i32, i32* %10, align 4, !tbaa !404, !llfi_index !1112
  %12 = getelementptr inbounds i32, i32* %0, i64 4, !llfi_index !1113
  %13 = load i32, i32* %12, align 4, !tbaa !404, !llfi_index !1114
  %14 = getelementptr inbounds i32, i32* %0, i64 5, !llfi_index !1115
  %15 = load i32, i32* %14, align 4, !tbaa !404, !llfi_index !1116
  %16 = getelementptr inbounds i32, i32* %0, i64 6, !llfi_index !1117
  %17 = load i32, i32* %16, align 4, !tbaa !404, !llfi_index !1118
  %18 = getelementptr inbounds i32, i32* %0, i64 7, !llfi_index !1119
  %19 = load i32, i32* %18, align 4, !tbaa !404, !llfi_index !1120
  %20 = sext i32 %5 to i64, !llfi_index !1121
  %21 = load double*, double** getelementptr inbounds (%struct.Mesh, %struct.Mesh* @mesh, i64 0, i32 0, i32 0, i32 0, i32 0, i32 0), align 8, !tbaa !9, !llfi_index !1122
  %22 = getelementptr inbounds double, double* %21, i64 %20, !llfi_index !1123
  %23 = load double, double* %22, align 8, !tbaa !345, !llfi_index !1124
  store double %23, double* %1, align 8, !tbaa !345, !llfi_index !1125
  %24 = sext i32 %7 to i64, !llfi_index !1126
  %25 = getelementptr inbounds double, double* %21, i64 %24, !llfi_index !1127
  %26 = load double, double* %25, align 8, !tbaa !345, !llfi_index !1128
  %27 = getelementptr inbounds double, double* %1, i64 1, !llfi_index !1129
  store double %26, double* %27, align 8, !tbaa !345, !llfi_index !1130
  %28 = sext i32 %9 to i64, !llfi_index !1131
  %29 = getelementptr inbounds double, double* %21, i64 %28, !llfi_index !1132
  %30 = load double, double* %29, align 8, !tbaa !345, !llfi_index !1133
  %31 = getelementptr inbounds double, double* %1, i64 2, !llfi_index !1134
  store double %30, double* %31, align 8, !tbaa !345, !llfi_index !1135
  %32 = sext i32 %11 to i64, !llfi_index !1136
  %33 = getelementptr inbounds double, double* %21, i64 %32, !llfi_index !1137
  %34 = load double, double* %33, align 8, !tbaa !345, !llfi_index !1138
  %35 = getelementptr inbounds double, double* %1, i64 3, !llfi_index !1139
  store double %34, double* %35, align 8, !tbaa !345, !llfi_index !1140
  %36 = sext i32 %13 to i64, !llfi_index !1141
  %37 = getelementptr inbounds double, double* %21, i64 %36, !llfi_index !1142
  %38 = load double, double* %37, align 8, !tbaa !345, !llfi_index !1143
  %39 = getelementptr inbounds double, double* %1, i64 4, !llfi_index !1144
  store double %38, double* %39, align 8, !tbaa !345, !llfi_index !1145
  %40 = sext i32 %15 to i64, !llfi_index !1146
  %41 = getelementptr inbounds double, double* %21, i64 %40, !llfi_index !1147
  %42 = load double, double* %41, align 8, !tbaa !345, !llfi_index !1148
  %43 = getelementptr inbounds double, double* %1, i64 5, !llfi_index !1149
  store double %42, double* %43, align 8, !tbaa !345, !llfi_index !1150
  %44 = sext i32 %17 to i64, !llfi_index !1151
  %45 = getelementptr inbounds double, double* %21, i64 %44, !llfi_index !1152
  %46 = load double, double* %45, align 8, !tbaa !345, !llfi_index !1153
  %47 = getelementptr inbounds double, double* %1, i64 6, !llfi_index !1154
  store double %46, double* %47, align 8, !tbaa !345, !llfi_index !1155
  %48 = sext i32 %19 to i64, !llfi_index !1156
  %49 = getelementptr inbounds double, double* %21, i64 %48, !llfi_index !1157
  %50 = load double, double* %49, align 8, !tbaa !345, !llfi_index !1158
  %51 = getelementptr inbounds double, double* %1, i64 7, !llfi_index !1159
  store double %50, double* %51, align 8, !tbaa !345, !llfi_index !1160
  %52 = load double*, double** getelementptr inbounds (%struct.Mesh, %struct.Mesh* @mesh, i64 0, i32 1, i32 0, i32 0, i32 0, i32 0), align 8, !tbaa !9, !llfi_index !1161
  %53 = getelementptr inbounds double, double* %52, i64 %20, !llfi_index !1162
  %54 = load double, double* %53, align 8, !tbaa !345, !llfi_index !1163
  store double %54, double* %2, align 8, !tbaa !345, !llfi_index !1164
  %55 = getelementptr inbounds double, double* %52, i64 %24, !llfi_index !1165
  %56 = load double, double* %55, align 8, !tbaa !345, !llfi_index !1166
  %57 = getelementptr inbounds double, double* %2, i64 1, !llfi_index !1167
  store double %56, double* %57, align 8, !tbaa !345, !llfi_index !1168
  %58 = getelementptr inbounds double, double* %52, i64 %28, !llfi_index !1169
  %59 = load double, double* %58, align 8, !tbaa !345, !llfi_index !1170
  %60 = getelementptr inbounds double, double* %2, i64 2, !llfi_index !1171
  store double %59, double* %60, align 8, !tbaa !345, !llfi_index !1172
  %61 = getelementptr inbounds double, double* %52, i64 %32, !llfi_index !1173
  %62 = load double, double* %61, align 8, !tbaa !345, !llfi_index !1174
  %63 = getelementptr inbounds double, double* %2, i64 3, !llfi_index !1175
  store double %62, double* %63, align 8, !tbaa !345, !llfi_index !1176
  %64 = getelementptr inbounds double, double* %52, i64 %36, !llfi_index !1177
  %65 = load double, double* %64, align 8, !tbaa !345, !llfi_index !1178
  %66 = getelementptr inbounds double, double* %2, i64 4, !llfi_index !1179
  store double %65, double* %66, align 8, !tbaa !345, !llfi_index !1180
  %67 = getelementptr inbounds double, double* %52, i64 %40, !llfi_index !1181
  %68 = load double, double* %67, align 8, !tbaa !345, !llfi_index !1182
  %69 = getelementptr inbounds double, double* %2, i64 5, !llfi_index !1183
  store double %68, double* %69, align 8, !tbaa !345, !llfi_index !1184
  %70 = getelementptr inbounds double, double* %52, i64 %44, !llfi_index !1185
  %71 = load double, double* %70, align 8, !tbaa !345, !llfi_index !1186
  %72 = getelementptr inbounds double, double* %2, i64 6, !llfi_index !1187
  store double %71, double* %72, align 8, !tbaa !345, !llfi_index !1188
  %73 = getelementptr inbounds double, double* %52, i64 %48, !llfi_index !1189
  %74 = load double, double* %73, align 8, !tbaa !345, !llfi_index !1190
  %75 = getelementptr inbounds double, double* %2, i64 7, !llfi_index !1191
  store double %74, double* %75, align 8, !tbaa !345, !llfi_index !1192
  %76 = load double*, double** getelementptr inbounds (%struct.Mesh, %struct.Mesh* @mesh, i64 0, i32 2, i32 0, i32 0, i32 0, i32 0), align 8, !tbaa !9, !llfi_index !1193
  %77 = getelementptr inbounds double, double* %76, i64 %20, !llfi_index !1194
  %78 = load double, double* %77, align 8, !tbaa !345, !llfi_index !1195
  store double %78, double* %3, align 8, !tbaa !345, !llfi_index !1196
  %79 = getelementptr inbounds double, double* %76, i64 %24, !llfi_index !1197
  %80 = load double, double* %79, align 8, !tbaa !345, !llfi_index !1198
  %81 = getelementptr inbounds double, double* %3, i64 1, !llfi_index !1199
  store double %80, double* %81, align 8, !tbaa !345, !llfi_index !1200
  %82 = getelementptr inbounds double, double* %76, i64 %28, !llfi_index !1201
  %83 = load double, double* %82, align 8, !tbaa !345, !llfi_index !1202
  %84 = getelementptr inbounds double, double* %3, i64 2, !llfi_index !1203
  store double %83, double* %84, align 8, !tbaa !345, !llfi_index !1204
  %85 = getelementptr inbounds double, double* %76, i64 %32, !llfi_index !1205
  %86 = load double, double* %85, align 8, !tbaa !345, !llfi_index !1206
  %87 = getelementptr inbounds double, double* %3, i64 3, !llfi_index !1207
  store double %86, double* %87, align 8, !tbaa !345, !llfi_index !1208
  %88 = getelementptr inbounds double, double* %76, i64 %36, !llfi_index !1209
  %89 = load double, double* %88, align 8, !tbaa !345, !llfi_index !1210
  %90 = getelementptr inbounds double, double* %3, i64 4, !llfi_index !1211
  store double %89, double* %90, align 8, !tbaa !345, !llfi_index !1212
  %91 = getelementptr inbounds double, double* %76, i64 %40, !llfi_index !1213
  %92 = load double, double* %91, align 8, !tbaa !345, !llfi_index !1214
  %93 = getelementptr inbounds double, double* %3, i64 5, !llfi_index !1215
  store double %92, double* %93, align 8, !tbaa !345, !llfi_index !1216
  %94 = getelementptr inbounds double, double* %76, i64 %44, !llfi_index !1217
  %95 = load double, double* %94, align 8, !tbaa !345, !llfi_index !1218
  %96 = getelementptr inbounds double, double* %3, i64 6, !llfi_index !1219
  store double %95, double* %96, align 8, !tbaa !345, !llfi_index !1220
  %97 = getelementptr inbounds double, double* %76, i64 %48, !llfi_index !1221
  %98 = load double, double* %97, align 8, !tbaa !345, !llfi_index !1222
  %99 = getelementptr inbounds double, double* %3, i64 7, !llfi_index !1223
  store double %98, double* %99, align 8, !tbaa !345, !llfi_index !1224
  ret void, !llfi_index !1225
}

; Function Attrs: mustprogress nofree noinline norecurse nosync nounwind uwtable willreturn
define dso_local void @_Z7VoluDerddddddddddddddddddPdS_S_(double %0, double %1, double %2, double %3, double %4, double %5, double %6, double %7, double %8, double %9, double %10, double %11, double %12, double %13, double %14, double %15, double %16, double %17, double* nocapture %18, double* nocapture %19, double* nocapture %20) local_unnamed_addr #5 {
  %22 = fadd double %7, %8, !llfi_index !1226
  %23 = fadd double %12, %13, !llfi_index !1227
  %24 = fmul double %22, %23, !llfi_index !1228
  %25 = fadd double %6, %7, !llfi_index !1229
  %26 = fadd double %13, %14, !llfi_index !1230
  %27 = fmul double %25, %26, !llfi_index !1231
  %28 = fsub double %24, %27, !llfi_index !1232
  %29 = fadd double %6, %10, !llfi_index !1233
  %30 = fadd double %15, %16, !llfi_index !1234
  %31 = fmul double %29, %30, !llfi_index !1235
  %32 = fadd double %28, %31, !llfi_index !1236
  %33 = fadd double %9, %10, !llfi_index !1237
  %34 = fadd double %12, %16, !llfi_index !1238
  %35 = fmul double %33, %34, !llfi_index !1239
  %36 = fsub double %32, %35, !llfi_index !1240
  %37 = fadd double %8, %11, !llfi_index !1241
  %38 = fadd double %15, %17, !llfi_index !1242
  %39 = fmul double %37, %38, !llfi_index !1243
  %40 = fsub double %36, %39, !llfi_index !1244
  %41 = fadd double %9, %11, !llfi_index !1245
  %42 = fadd double %14, %17, !llfi_index !1246
  %43 = fmul double %41, %42, !llfi_index !1247
  %44 = fadd double %43, %40, !llfi_index !1248
  store double %44, double* %18, align 8, !tbaa !345, !llfi_index !1249
  %45 = fadd double %1, %2, !llfi_index !1250
  %46 = fadd double %0, %1, !llfi_index !1251
  %47 = fmul double %46, %26, !llfi_index !1252
  %48 = fmul double %45, %23, !llfi_index !1253
  %49 = fsub double %47, %48, !llfi_index !1254
  %50 = fadd double %0, %4, !llfi_index !1255
  %51 = fmul double %50, %30, !llfi_index !1256
  %52 = fsub double %49, %51, !llfi_index !1257
  %53 = fadd double %3, %4, !llfi_index !1258
  %54 = fmul double %53, %34, !llfi_index !1259
  %55 = fadd double %54, %52, !llfi_index !1260
  %56 = fadd double %2, %5, !llfi_index !1261
  %57 = fmul double %56, %38, !llfi_index !1262
  %58 = fadd double %57, %55, !llfi_index !1263
  %59 = fadd double %3, %5, !llfi_index !1264
  %60 = fmul double %59, %42, !llfi_index !1265
  %61 = fsub double %58, %60, !llfi_index !1266
  store double %61, double* %19, align 8, !tbaa !345, !llfi_index !1267
  %62 = fmul double %45, %25, !llfi_index !1268
  %63 = fmul double %46, %22, !llfi_index !1269
  %64 = fsub double %62, %63, !llfi_index !1270
  %65 = fmul double %53, %29, !llfi_index !1271
  %66 = fsub double %64, %65, !llfi_index !1272
  %67 = fmul double %50, %33, !llfi_index !1273
  %68 = fadd double %67, %66, !llfi_index !1274
  %69 = fmul double %59, %37, !llfi_index !1275
  %70 = fadd double %69, %68, !llfi_index !1276
  %71 = fmul double %56, %41, !llfi_index !1277
  %72 = fsub double %70, %71, !llfi_index !1278
  store double %72, double* %20, align 8, !tbaa !345, !llfi_index !1279
  %73 = load double, double* %18, align 8, !tbaa !345, !llfi_index !1280
  %74 = fmul double %73, 0x3FB5555555555555, !llfi_index !1281
  store double %74, double* %18, align 8, !tbaa !345, !llfi_index !1282
  %75 = load double, double* %19, align 8, !tbaa !345, !llfi_index !1283
  %76 = fmul double %75, 0x3FB5555555555555, !llfi_index !1284
  store double %76, double* %19, align 8, !tbaa !345, !llfi_index !1285
  %77 = load double, double* %20, align 8, !tbaa !345, !llfi_index !1286
  %78 = fmul double %77, 0x3FB5555555555555, !llfi_index !1287
  store double %78, double* %20, align 8, !tbaa !345, !llfi_index !1288
  ret void, !llfi_index !1289
}

; Function Attrs: mustprogress nofree noinline norecurse nosync nounwind uwtable willreturn
define dso_local void @_Z24CalcElemVolumeDerivativePdS_S_PKdS1_S1_(double* nocapture %0, double* nocapture %1, double* nocapture %2, double* nocapture readonly %3, double* nocapture readonly %4, double* nocapture readonly %5) local_unnamed_addr #5 {
  %7 = getelementptr inbounds double, double* %3, i64 1, !llfi_index !1290
  %8 = load double, double* %7, align 8, !tbaa !345, !llfi_index !1291
  %9 = getelementptr inbounds double, double* %3, i64 2, !llfi_index !1292
  %10 = load double, double* %9, align 8, !tbaa !345, !llfi_index !1293
  %11 = getelementptr inbounds double, double* %3, i64 3, !llfi_index !1294
  %12 = load double, double* %11, align 8, !tbaa !345, !llfi_index !1295
  %13 = getelementptr inbounds double, double* %3, i64 4, !llfi_index !1296
  %14 = load double, double* %13, align 8, !tbaa !345, !llfi_index !1297
  %15 = getelementptr inbounds double, double* %3, i64 5, !llfi_index !1298
  %16 = load double, double* %15, align 8, !tbaa !345, !llfi_index !1299
  %17 = getelementptr inbounds double, double* %3, i64 7, !llfi_index !1300
  %18 = load double, double* %17, align 8, !tbaa !345, !llfi_index !1301
  %19 = getelementptr inbounds double, double* %4, i64 1, !llfi_index !1302
  %20 = load double, double* %19, align 8, !tbaa !345, !llfi_index !1303
  %21 = getelementptr inbounds double, double* %4, i64 2, !llfi_index !1304
  %22 = load double, double* %21, align 8, !tbaa !345, !llfi_index !1305
  %23 = getelementptr inbounds double, double* %4, i64 3, !llfi_index !1306
  %24 = load double, double* %23, align 8, !tbaa !345, !llfi_index !1307
  %25 = getelementptr inbounds double, double* %4, i64 4, !llfi_index !1308
  %26 = load double, double* %25, align 8, !tbaa !345, !llfi_index !1309
  %27 = getelementptr inbounds double, double* %4, i64 5, !llfi_index !1310
  %28 = load double, double* %27, align 8, !tbaa !345, !llfi_index !1311
  %29 = getelementptr inbounds double, double* %4, i64 7, !llfi_index !1312
  %30 = load double, double* %29, align 8, !tbaa !345, !llfi_index !1313
  %31 = getelementptr inbounds double, double* %5, i64 1, !llfi_index !1314
  %32 = load double, double* %31, align 8, !tbaa !345, !llfi_index !1315
  %33 = getelementptr inbounds double, double* %5, i64 2, !llfi_index !1316
  %34 = load double, double* %33, align 8, !tbaa !345, !llfi_index !1317
  %35 = getelementptr inbounds double, double* %5, i64 3, !llfi_index !1318
  %36 = load double, double* %35, align 8, !tbaa !345, !llfi_index !1319
  %37 = getelementptr double, double* %5, i64 4, !llfi_index !1320
  %fi = call double* @injectFault0(i64 1300, double* %37, i32 34, i32 0, i32 1, i32 0, i8* getelementptr inbounds ([14 x i8], [14 x i8]* @getelementptr_namestr, i32 0, i32 0)), !llfi_injectfault !1321
  %38 = load double, double* %fi, align 8, !tbaa !345, !llfi_index !1322
  %39 = getelementptr inbounds double, double* %5, i64 5, !llfi_index !1323
  %40 = load double, double* %39, align 8, !tbaa !345, !llfi_index !1324
  %41 = getelementptr inbounds double, double* %5, i64 7, !llfi_index !1325
  %42 = load double, double* %41, align 8, !tbaa !345, !llfi_index !1326
  tail call void @_Z7VoluDerddddddddddddddddddPdS_S_(double %8, double %10, double %12, double %14, double %16, double %18, double %20, double %22, double %24, double %26, double %28, double %30, double %32, double %34, double %36, double %38, double %40, double %42, double* %0, double* %1, double* %2), !llfi_index !1327
  %43 = load double, double* %3, align 8, !tbaa !345, !llfi_index !1328
  %44 = load double, double* %7, align 8, !tbaa !345, !llfi_index !1329
  %45 = load double, double* %9, align 8, !tbaa !345, !llfi_index !1330
  %46 = load double, double* %17, align 8, !tbaa !345, !llfi_index !1331
  %47 = load double, double* %13, align 8, !tbaa !345, !llfi_index !1332
  %48 = getelementptr inbounds double, double* %3, i64 6, !llfi_index !1333
  %49 = load double, double* %48, align 8, !tbaa !345, !llfi_index !1334
  %50 = load double, double* %4, align 8, !tbaa !345, !llfi_index !1335
  %51 = load double, double* %19, align 8, !tbaa !345, !llfi_index !1336
  %52 = load double, double* %21, align 8, !tbaa !345, !llfi_index !1337
  %53 = load double, double* %29, align 8, !tbaa !345, !llfi_index !1338
  %54 = load double, double* %25, align 8, !tbaa !345, !llfi_index !1339
  %55 = getelementptr inbounds double, double* %4, i64 6, !llfi_index !1340
  %56 = load double, double* %55, align 8, !tbaa !345, !llfi_index !1341
  %57 = load double, double* %5, align 8, !tbaa !345, !llfi_index !1342
  %58 = load double, double* %31, align 8, !tbaa !345, !llfi_index !1343
  %59 = load double, double* %33, align 8, !tbaa !345, !llfi_index !1344
  %60 = load double, double* %41, align 8, !tbaa !345, !llfi_index !1345
  %61 = load double, double* %fi, align 8, !tbaa !345, !llfi_index !1346
  %62 = getelementptr inbounds double, double* %5, i64 6, !llfi_index !1347
  %63 = load double, double* %62, align 8, !tbaa !345, !llfi_index !1348
  %64 = getelementptr inbounds double, double* %0, i64 3, !llfi_index !1349
  %65 = getelementptr inbounds double, double* %1, i64 3, !llfi_index !1350
  %66 = getelementptr inbounds double, double* %2, i64 3, !llfi_index !1351
  tail call void @_Z7VoluDerddddddddddddddddddPdS_S_(double %43, double %44, double %45, double %46, double %47, double %49, double %50, double %51, double %52, double %53, double %54, double %56, double %57, double %58, double %59, double %60, double %61, double %63, double* nonnull %64, double* nonnull %65, double* nonnull %66), !llfi_index !1352
  %67 = load double, double* %11, align 8, !tbaa !345, !llfi_index !1353
  %68 = load double, double* %3, align 8, !tbaa !345, !llfi_index !1354
  %69 = load double, double* %7, align 8, !tbaa !345, !llfi_index !1355
  %70 = load double, double* %48, align 8, !tbaa !345, !llfi_index !1356
  %71 = load double, double* %17, align 8, !tbaa !345, !llfi_index !1357
  %72 = load double, double* %15, align 8, !tbaa !345, !llfi_index !1358
  %73 = load double, double* %23, align 8, !tbaa !345, !llfi_index !1359
  %74 = load double, double* %4, align 8, !tbaa !345, !llfi_index !1360
  %75 = load double, double* %19, align 8, !tbaa !345, !llfi_index !1361
  %76 = load double, double* %55, align 8, !tbaa !345, !llfi_index !1362
  %77 = load double, double* %29, align 8, !tbaa !345, !llfi_index !1363
  %78 = load double, double* %27, align 8, !tbaa !345, !llfi_index !1364
  %79 = load double, double* %35, align 8, !tbaa !345, !llfi_index !1365
  %80 = load double, double* %5, align 8, !tbaa !345, !llfi_index !1366
  %81 = load double, double* %31, align 8, !tbaa !345, !llfi_index !1367
  %82 = load double, double* %62, align 8, !tbaa !345, !llfi_index !1368
  %83 = load double, double* %41, align 8, !tbaa !345, !llfi_index !1369
  %84 = load double, double* %39, align 8, !tbaa !345, !llfi_index !1370
  %85 = getelementptr inbounds double, double* %0, i64 2, !llfi_index !1371
  %86 = getelementptr inbounds double, double* %1, i64 2, !llfi_index !1372
  %87 = getelementptr inbounds double, double* %2, i64 2, !llfi_index !1373
  tail call void @_Z7VoluDerddddddddddddddddddPdS_S_(double %67, double %68, double %69, double %70, double %71, double %72, double %73, double %74, double %75, double %76, double %77, double %78, double %79, double %80, double %81, double %82, double %83, double %84, double* nonnull %85, double* nonnull %86, double* nonnull %87), !llfi_index !1374
  %88 = load double, double* %9, align 8, !tbaa !345, !llfi_index !1375
  %89 = load double, double* %11, align 8, !tbaa !345, !llfi_index !1376
  %90 = load double, double* %3, align 8, !tbaa !345, !llfi_index !1377
  %91 = load double, double* %15, align 8, !tbaa !345, !llfi_index !1378
  %92 = load double, double* %48, align 8, !tbaa !345, !llfi_index !1379
  %93 = load double, double* %13, align 8, !tbaa !345, !llfi_index !1380
  %94 = load double, double* %21, align 8, !tbaa !345, !llfi_index !1381
  %95 = load double, double* %23, align 8, !tbaa !345, !llfi_index !1382
  %96 = load double, double* %4, align 8, !tbaa !345, !llfi_index !1383
  %97 = load double, double* %27, align 8, !tbaa !345, !llfi_index !1384
  %98 = load double, double* %55, align 8, !tbaa !345, !llfi_index !1385
  %99 = load double, double* %25, align 8, !tbaa !345, !llfi_index !1386
  %100 = load double, double* %33, align 8, !tbaa !345, !llfi_index !1387
  %101 = load double, double* %35, align 8, !tbaa !345, !llfi_index !1388
  %102 = load double, double* %5, align 8, !tbaa !345, !llfi_index !1389
  %103 = load double, double* %39, align 8, !tbaa !345, !llfi_index !1390
  %104 = load double, double* %62, align 8, !tbaa !345, !llfi_index !1391
  %105 = load double, double* %fi, align 8, !tbaa !345, !llfi_index !1392
  %106 = getelementptr inbounds double, double* %0, i64 1, !llfi_index !1393
  %107 = getelementptr inbounds double, double* %1, i64 1, !llfi_index !1394
  %108 = getelementptr inbounds double, double* %2, i64 1, !llfi_index !1395
  tail call void @_Z7VoluDerddddddddddddddddddPdS_S_(double %88, double %89, double %90, double %91, double %92, double %93, double %94, double %95, double %96, double %97, double %98, double %99, double %100, double %101, double %102, double %103, double %104, double %105, double* nonnull %106, double* nonnull %107, double* nonnull %108), !llfi_index !1396
  %109 = load double, double* %17, align 8, !tbaa !345, !llfi_index !1397
  %110 = load double, double* %48, align 8, !tbaa !345, !llfi_index !1398
  %111 = load double, double* %15, align 8, !tbaa !345, !llfi_index !1399
  %112 = load double, double* %3, align 8, !tbaa !345, !llfi_index !1400
  %113 = load double, double* %11, align 8, !tbaa !345, !llfi_index !1401
  %114 = load double, double* %7, align 8, !tbaa !345, !llfi_index !1402
  %115 = load double, double* %29, align 8, !tbaa !345, !llfi_index !1403
  %116 = load double, double* %55, align 8, !tbaa !345, !llfi_index !1404
  %117 = load double, double* %27, align 8, !tbaa !345, !llfi_index !1405
  %118 = load double, double* %4, align 8, !tbaa !345, !llfi_index !1406
  %119 = load double, double* %23, align 8, !tbaa !345, !llfi_index !1407
  %120 = load double, double* %19, align 8, !tbaa !345, !llfi_index !1408
  %121 = load double, double* %41, align 8, !tbaa !345, !llfi_index !1409
  %122 = load double, double* %62, align 8, !tbaa !345, !llfi_index !1410
  %123 = load double, double* %39, align 8, !tbaa !345, !llfi_index !1411
  %124 = load double, double* %5, align 8, !tbaa !345, !llfi_index !1412
  %125 = load double, double* %35, align 8, !tbaa !345, !llfi_index !1413
  %126 = load double, double* %31, align 8, !tbaa !345, !llfi_index !1414
  %127 = getelementptr inbounds double, double* %0, i64 4, !llfi_index !1415
  %128 = getelementptr inbounds double, double* %1, i64 4, !llfi_index !1416
  %129 = getelementptr inbounds double, double* %2, i64 4, !llfi_index !1417
  tail call void @_Z7VoluDerddddddddddddddddddPdS_S_(double %109, double %110, double %111, double %112, double %113, double %114, double %115, double %116, double %117, double %118, double %119, double %120, double %121, double %122, double %123, double %124, double %125, double %126, double* nonnull %127, double* nonnull %128, double* nonnull %129), !llfi_index !1418
  %130 = load double, double* %13, align 8, !tbaa !345, !llfi_index !1419
  %131 = load double, double* %17, align 8, !tbaa !345, !llfi_index !1420
  %132 = load double, double* %48, align 8, !tbaa !345, !llfi_index !1421
  %133 = load double, double* %7, align 8, !tbaa !345, !llfi_index !1422
  %134 = load double, double* %3, align 8, !tbaa !345, !llfi_index !1423
  %135 = load double, double* %9, align 8, !tbaa !345, !llfi_index !1424
  %136 = load double, double* %25, align 8, !tbaa !345, !llfi_index !1425
  %137 = load double, double* %29, align 8, !tbaa !345, !llfi_index !1426
  %138 = load double, double* %55, align 8, !tbaa !345, !llfi_index !1427
  %139 = load double, double* %19, align 8, !tbaa !345, !llfi_index !1428
  %140 = load double, double* %4, align 8, !tbaa !345, !llfi_index !1429
  %141 = load double, double* %21, align 8, !tbaa !345, !llfi_index !1430
  %142 = load double, double* %fi, align 8, !tbaa !345, !llfi_index !1431
  %143 = load double, double* %41, align 8, !tbaa !345, !llfi_index !1432
  %144 = load double, double* %62, align 8, !tbaa !345, !llfi_index !1433
  %145 = load double, double* %31, align 8, !tbaa !345, !llfi_index !1434
  %146 = load double, double* %5, align 8, !tbaa !345, !llfi_index !1435
  %147 = load double, double* %33, align 8, !tbaa !345, !llfi_index !1436
  %148 = getelementptr inbounds double, double* %0, i64 5, !llfi_index !1437
  %149 = getelementptr inbounds double, double* %1, i64 5, !llfi_index !1438
  %150 = getelementptr inbounds double, double* %2, i64 5, !llfi_index !1439
  tail call void @_Z7VoluDerddddddddddddddddddPdS_S_(double %130, double %131, double %132, double %133, double %134, double %135, double %136, double %137, double %138, double %139, double %140, double %141, double %142, double %143, double %144, double %145, double %146, double %147, double* nonnull %148, double* nonnull %149, double* nonnull %150), !llfi_index !1440
  %151 = load double, double* %15, align 8, !tbaa !345, !llfi_index !1441
  %152 = load double, double* %13, align 8, !tbaa !345, !llfi_index !1442
  %153 = load double, double* %17, align 8, !tbaa !345, !llfi_index !1443
  %154 = load double, double* %9, align 8, !tbaa !345, !llfi_index !1444
  %155 = load double, double* %7, align 8, !tbaa !345, !llfi_index !1445
  %156 = load double, double* %11, align 8, !tbaa !345, !llfi_index !1446
  %157 = load double, double* %27, align 8, !tbaa !345, !llfi_index !1447
  %158 = load double, double* %25, align 8, !tbaa !345, !llfi_index !1448
  %159 = load double, double* %29, align 8, !tbaa !345, !llfi_index !1449
  %160 = load double, double* %21, align 8, !tbaa !345, !llfi_index !1450
  %161 = load double, double* %19, align 8, !tbaa !345, !llfi_index !1451
  %162 = load double, double* %23, align 8, !tbaa !345, !llfi_index !1452
  %163 = load double, double* %39, align 8, !tbaa !345, !llfi_index !1453
  %164 = load double, double* %fi, align 8, !tbaa !345, !llfi_index !1454
  %165 = load double, double* %41, align 8, !tbaa !345, !llfi_index !1455
  %166 = load double, double* %33, align 8, !tbaa !345, !llfi_index !1456
  %167 = load double, double* %31, align 8, !tbaa !345, !llfi_index !1457
  %168 = load double, double* %35, align 8, !tbaa !345, !llfi_index !1458
  %169 = getelementptr inbounds double, double* %0, i64 6, !llfi_index !1459
  %170 = getelementptr inbounds double, double* %1, i64 6, !llfi_index !1460
  %171 = getelementptr inbounds double, double* %2, i64 6, !llfi_index !1461
  tail call void @_Z7VoluDerddddddddddddddddddPdS_S_(double %151, double %152, double %153, double %154, double %155, double %156, double %157, double %158, double %159, double %160, double %161, double %162, double %163, double %164, double %165, double %166, double %167, double %168, double* nonnull %169, double* nonnull %170, double* nonnull %171), !llfi_index !1462
  %172 = load double, double* %48, align 8, !tbaa !345, !llfi_index !1463
  %173 = load double, double* %15, align 8, !tbaa !345, !llfi_index !1464
  %174 = load double, double* %13, align 8, !tbaa !345, !llfi_index !1465
  %175 = load double, double* %11, align 8, !tbaa !345, !llfi_index !1466
  %176 = load double, double* %9, align 8, !tbaa !345, !llfi_index !1467
  %177 = load double, double* %3, align 8, !tbaa !345, !llfi_index !1468
  %178 = load double, double* %55, align 8, !tbaa !345, !llfi_index !1469
  %179 = load double, double* %27, align 8, !tbaa !345, !llfi_index !1470
  %180 = load double, double* %25, align 8, !tbaa !345, !llfi_index !1471
  %181 = load double, double* %23, align 8, !tbaa !345, !llfi_index !1472
  %182 = load double, double* %21, align 8, !tbaa !345, !llfi_index !1473
  %183 = load double, double* %4, align 8, !tbaa !345, !llfi_index !1474
  %184 = load double, double* %62, align 8, !tbaa !345, !llfi_index !1475
  %185 = load double, double* %39, align 8, !tbaa !345, !llfi_index !1476
  %186 = load double, double* %fi, align 8, !tbaa !345, !llfi_index !1477
  %fi1 = call double @injectFault1(i64 1456, double %186, i32 32, i32 0, i32 1, i32 0, i8* getelementptr inbounds ([5 x i8], [5 x i8]* @load_namestr, i32 0, i32 0)), !llfi_injectfault !1321
  %187 = load double, double* %35, align 8, !tbaa !345, !llfi_index !1478
  %188 = load double, double* %33, align 8, !tbaa !345, !llfi_index !1479
  %189 = load double, double* %5, align 8, !tbaa !345, !llfi_index !1480
  %190 = getelementptr inbounds double, double* %0, i64 7, !llfi_index !1481
  %191 = getelementptr inbounds double, double* %1, i64 7, !llfi_index !1482
  %192 = getelementptr inbounds double, double* %2, i64 7, !llfi_index !1483
  tail call void @_Z7VoluDerddddddddddddddddddPdS_S_(double %172, double %173, double %174, double %175, double %176, double %177, double %178, double %179, double %180, double %181, double %182, double %183, double %184, double %185, double %fi1, double %187, double %188, double %189, double* nonnull %190, double* nonnull %191, double* nonnull %192), !llfi_index !1484
  ret void, !llfi_index !1485
}

; Function Attrs: mustprogress nofree noinline norecurse nosync nounwind uwtable willreturn
define dso_local void @_Z24CalcElemFBHourglassForcePdS_S_S_S_S_S_S_S_S_S_dS_S_S_(double* nocapture readonly %0, double* nocapture readonly %1, double* nocapture readonly %2, double* nocapture readonly %3, double* nocapture readonly %4, double* nocapture readonly %5, double* nocapture readonly %6, double* nocapture readonly %7, double* nocapture readonly %8, double* nocapture readonly %9, double* nocapture readonly %10, double %11, double* nocapture %12, double* nocapture %13, double* nocapture %14) local_unnamed_addr #5 {
  %16 = load double, double* %3, align 8, !tbaa !345, !llfi_index !1486
  %17 = load double, double* %0, align 8, !tbaa !345, !llfi_index !1487
  %18 = fmul double %16, %17, !llfi_index !1488
  %19 = load double, double* %4, align 8, !tbaa !345, !llfi_index !1489
  %20 = getelementptr inbounds double, double* %0, i64 1, !llfi_index !1490
  %21 = load double, double* %20, align 8, !tbaa !345, !llfi_index !1491
  %22 = fmul double %19, %21, !llfi_index !1492
  %23 = fadd double %18, %22, !llfi_index !1493
  %24 = load double, double* %5, align 8, !tbaa !345, !llfi_index !1494
  %25 = getelementptr inbounds double, double* %0, i64 2, !llfi_index !1495
  %26 = load double, double* %25, align 8, !tbaa !345, !llfi_index !1496
  %27 = fmul double %24, %26, !llfi_index !1497
  %28 = fadd double %23, %27, !llfi_index !1498
  %29 = load double, double* %6, align 8, !tbaa !345, !llfi_index !1499
  %30 = getelementptr inbounds double, double* %0, i64 3, !llfi_index !1500
  %31 = load double, double* %30, align 8, !tbaa !345, !llfi_index !1501
  %32 = fmul double %29, %31, !llfi_index !1502
  %33 = fadd double %28, %32, !llfi_index !1503
  %34 = load double, double* %7, align 8, !tbaa !345, !llfi_index !1504
  %35 = getelementptr inbounds double, double* %0, i64 4, !llfi_index !1505
  %36 = load double, double* %35, align 8, !tbaa !345, !llfi_index !1506
  %37 = fmul double %34, %36, !llfi_index !1507
  %38 = fadd double %33, %37, !llfi_index !1508
  %39 = load double, double* %8, align 8, !tbaa !345, !llfi_index !1509
  %40 = getelementptr inbounds double, double* %0, i64 5, !llfi_index !1510
  %41 = load double, double* %40, align 8, !tbaa !345, !llfi_index !1511
  %42 = fmul double %39, %41, !llfi_index !1512
  %43 = fadd double %38, %42, !llfi_index !1513
  %44 = load double, double* %9, align 8, !tbaa !345, !llfi_index !1514
  %45 = getelementptr inbounds double, double* %0, i64 6, !llfi_index !1515
  %46 = load double, double* %45, align 8, !tbaa !345, !llfi_index !1516
  %47 = fmul double %44, %46, !llfi_index !1517
  %48 = fadd double %43, %47, !llfi_index !1518
  %49 = load double, double* %10, align 8, !tbaa !345, !llfi_index !1519
  %50 = getelementptr inbounds double, double* %0, i64 7, !llfi_index !1520
  %51 = load double, double* %50, align 8, !tbaa !345, !llfi_index !1521
  %52 = fmul double %49, %51, !llfi_index !1522
  %53 = fadd double %48, %52, !llfi_index !1523
  %54 = getelementptr inbounds double, double* %3, i64 1, !llfi_index !1524
  %55 = load double, double* %54, align 8, !tbaa !345, !llfi_index !1525
  %56 = fmul double %17, %55, !llfi_index !1526
  %57 = getelementptr inbounds double, double* %4, i64 1, !llfi_index !1527
  %58 = load double, double* %57, align 8, !tbaa !345, !llfi_index !1528
  %59 = fmul double %21, %58, !llfi_index !1529
  %60 = fadd double %56, %59, !llfi_index !1530
  %61 = getelementptr inbounds double, double* %5, i64 1, !llfi_index !1531
  %62 = load double, double* %61, align 8, !tbaa !345, !llfi_index !1532
  %63 = fmul double %26, %62, !llfi_index !1533
  %64 = fadd double %60, %63, !llfi_index !1534
  %65 = getelementptr inbounds double, double* %6, i64 1, !llfi_index !1535
  %66 = load double, double* %65, align 8, !tbaa !345, !llfi_index !1536
  %67 = fmul double %31, %66, !llfi_index !1537
  %68 = fadd double %64, %67, !llfi_index !1538
  %69 = getelementptr inbounds double, double* %7, i64 1, !llfi_index !1539
  %70 = load double, double* %69, align 8, !tbaa !345, !llfi_index !1540
  %71 = fmul double %36, %70, !llfi_index !1541
  %72 = fadd double %68, %71, !llfi_index !1542
  %73 = getelementptr inbounds double, double* %8, i64 1, !llfi_index !1543
  %74 = load double, double* %73, align 8, !tbaa !345, !llfi_index !1544
  %75 = fmul double %41, %74, !llfi_index !1545
  %76 = fadd double %72, %75, !llfi_index !1546
  %77 = getelementptr inbounds double, double* %9, i64 1, !llfi_index !1547
  %78 = load double, double* %77, align 8, !tbaa !345, !llfi_index !1548
  %79 = fmul double %46, %78, !llfi_index !1549
  %80 = fadd double %76, %79, !llfi_index !1550
  %81 = getelementptr inbounds double, double* %10, i64 1, !llfi_index !1551
  %82 = load double, double* %81, align 8, !tbaa !345, !llfi_index !1552
  %83 = fmul double %51, %82, !llfi_index !1553
  %84 = fadd double %80, %83, !llfi_index !1554
  %85 = getelementptr inbounds double, double* %3, i64 2, !llfi_index !1555
  %86 = load double, double* %85, align 8, !tbaa !345, !llfi_index !1556
  %87 = fmul double %17, %86, !llfi_index !1557
  %88 = getelementptr inbounds double, double* %4, i64 2, !llfi_index !1558
  %89 = load double, double* %88, align 8, !tbaa !345, !llfi_index !1559
  %90 = fmul double %21, %89, !llfi_index !1560
  %91 = fadd double %87, %90, !llfi_index !1561
  %92 = getelementptr inbounds double, double* %5, i64 2, !llfi_index !1562
  %93 = load double, double* %92, align 8, !tbaa !345, !llfi_index !1563
  %94 = fmul double %26, %93, !llfi_index !1564
  %95 = fadd double %91, %94, !llfi_index !1565
  %96 = getelementptr inbounds double, double* %6, i64 2, !llfi_index !1566
  %97 = load double, double* %96, align 8, !tbaa !345, !llfi_index !1567
  %98 = fmul double %31, %97, !llfi_index !1568
  %99 = fadd double %95, %98, !llfi_index !1569
  %100 = getelementptr inbounds double, double* %7, i64 2, !llfi_index !1570
  %101 = load double, double* %100, align 8, !tbaa !345, !llfi_index !1571
  %102 = fmul double %36, %101, !llfi_index !1572
  %103 = fadd double %99, %102, !llfi_index !1573
  %104 = getelementptr inbounds double, double* %8, i64 2, !llfi_index !1574
  %105 = load double, double* %104, align 8, !tbaa !345, !llfi_index !1575
  %106 = fmul double %41, %105, !llfi_index !1576
  %107 = fadd double %103, %106, !llfi_index !1577
  %108 = getelementptr inbounds double, double* %9, i64 2, !llfi_index !1578
  %109 = load double, double* %108, align 8, !tbaa !345, !llfi_index !1579
  %110 = fmul double %46, %109, !llfi_index !1580
  %111 = fadd double %107, %110, !llfi_index !1581
  %112 = getelementptr inbounds double, double* %10, i64 2, !llfi_index !1582
  %113 = load double, double* %112, align 8, !tbaa !345, !llfi_index !1583
  %114 = fmul double %51, %113, !llfi_index !1584
  %115 = fadd double %111, %114, !llfi_index !1585
  %116 = getelementptr inbounds double, double* %3, i64 3, !llfi_index !1586
  %117 = load double, double* %116, align 8, !tbaa !345, !llfi_index !1587
  %118 = fmul double %17, %117, !llfi_index !1588
  %119 = getelementptr inbounds double, double* %4, i64 3, !llfi_index !1589
  %120 = load double, double* %119, align 8, !tbaa !345, !llfi_index !1590
  %121 = fmul double %21, %120, !llfi_index !1591
  %122 = fadd double %118, %121, !llfi_index !1592
  %123 = getelementptr inbounds double, double* %5, i64 3, !llfi_index !1593
  %124 = load double, double* %123, align 8, !tbaa !345, !llfi_index !1594
  %125 = fmul double %26, %124, !llfi_index !1595
  %126 = fadd double %122, %125, !llfi_index !1596
  %127 = getelementptr inbounds double, double* %6, i64 3, !llfi_index !1597
  %128 = load double, double* %127, align 8, !tbaa !345, !llfi_index !1598
  %129 = fmul double %31, %128, !llfi_index !1599
  %130 = fadd double %126, %129, !llfi_index !1600
  %131 = getelementptr inbounds double, double* %7, i64 3, !llfi_index !1601
  %132 = load double, double* %131, align 8, !tbaa !345, !llfi_index !1602
  %133 = fmul double %36, %132, !llfi_index !1603
  %134 = fadd double %130, %133, !llfi_index !1604
  %135 = getelementptr inbounds double, double* %8, i64 3, !llfi_index !1605
  %136 = load double, double* %135, align 8, !tbaa !345, !llfi_index !1606
  %137 = fmul double %41, %136, !llfi_index !1607
  %138 = fadd double %134, %137, !llfi_index !1608
  %139 = getelementptr inbounds double, double* %9, i64 3, !llfi_index !1609
  %140 = load double, double* %139, align 8, !tbaa !345, !llfi_index !1610
  %141 = fmul double %46, %140, !llfi_index !1611
  %142 = fadd double %138, %141, !llfi_index !1612
  %143 = getelementptr inbounds double, double* %10, i64 3, !llfi_index !1613
  %144 = load double, double* %143, align 8, !tbaa !345, !llfi_index !1614
  %145 = fmul double %51, %144, !llfi_index !1615
  %146 = fadd double %142, %145, !llfi_index !1616
  %147 = fmul double %16, %53, !llfi_index !1617
  %148 = fmul double %55, %84, !llfi_index !1618
  %149 = fadd double %147, %148, !llfi_index !1619
  %150 = fmul double %86, %115, !llfi_index !1620
  %151 = fadd double %149, %150, !llfi_index !1621
  %152 = fmul double %117, %146, !llfi_index !1622
  %153 = fadd double %151, %152, !llfi_index !1623
  %154 = fmul double %153, %11, !llfi_index !1624
  store double %154, double* %12, align 8, !tbaa !345, !llfi_index !1625
  %155 = load double, double* %4, align 8, !tbaa !345, !llfi_index !1626
  %156 = fmul double %53, %155, !llfi_index !1627
  %157 = load double, double* %57, align 8, !tbaa !345, !llfi_index !1628
  %158 = fmul double %84, %157, !llfi_index !1629
  %159 = fadd double %156, %158, !llfi_index !1630
  %160 = load double, double* %88, align 8, !tbaa !345, !llfi_index !1631
  %161 = fmul double %115, %160, !llfi_index !1632
  %162 = fadd double %159, %161, !llfi_index !1633
  %163 = load double, double* %119, align 8, !tbaa !345, !llfi_index !1634
  %164 = fmul double %146, %163, !llfi_index !1635
  %165 = fadd double %162, %164, !llfi_index !1636
  %166 = fmul double %165, %11, !llfi_index !1637
  %167 = getelementptr inbounds double, double* %12, i64 1, !llfi_index !1638
  store double %166, double* %167, align 8, !tbaa !345, !llfi_index !1639
  %168 = load double, double* %5, align 8, !tbaa !345, !llfi_index !1640
  %169 = fmul double %53, %168, !llfi_index !1641
  %170 = load double, double* %61, align 8, !tbaa !345, !llfi_index !1642
  %171 = fmul double %84, %170, !llfi_index !1643
  %172 = fadd double %169, %171, !llfi_index !1644
  %173 = load double, double* %92, align 8, !tbaa !345, !llfi_index !1645
  %174 = fmul double %115, %173, !llfi_index !1646
  %175 = fadd double %172, %174, !llfi_index !1647
  %176 = load double, double* %123, align 8, !tbaa !345, !llfi_index !1648
  %177 = fmul double %146, %176, !llfi_index !1649
  %178 = fadd double %175, %177, !llfi_index !1650
  %179 = fmul double %178, %11, !llfi_index !1651
  %180 = getelementptr inbounds double, double* %12, i64 2, !llfi_index !1652
  store double %179, double* %180, align 8, !tbaa !345, !llfi_index !1653
  %181 = load double, double* %6, align 8, !tbaa !345, !llfi_index !1654
  %182 = fmul double %53, %181, !llfi_index !1655
  %183 = load double, double* %65, align 8, !tbaa !345, !llfi_index !1656
  %184 = fmul double %84, %183, !llfi_index !1657
  %185 = fadd double %182, %184, !llfi_index !1658
  %186 = load double, double* %96, align 8, !tbaa !345, !llfi_index !1659
  %187 = fmul double %115, %186, !llfi_index !1660
  %188 = fadd double %185, %187, !llfi_index !1661
  %189 = load double, double* %127, align 8, !tbaa !345, !llfi_index !1662
  %190 = fmul double %146, %189, !llfi_index !1663
  %191 = fadd double %188, %190, !llfi_index !1664
  %192 = fmul double %191, %11, !llfi_index !1665
  %193 = getelementptr inbounds double, double* %12, i64 3, !llfi_index !1666
  store double %192, double* %193, align 8, !tbaa !345, !llfi_index !1667
  %194 = load double, double* %7, align 8, !tbaa !345, !llfi_index !1668
  %195 = fmul double %53, %194, !llfi_index !1669
  %196 = load double, double* %69, align 8, !tbaa !345, !llfi_index !1670
  %197 = fmul double %84, %196, !llfi_index !1671
  %198 = fadd double %195, %197, !llfi_index !1672
  %199 = load double, double* %100, align 8, !tbaa !345, !llfi_index !1673
  %200 = fmul double %115, %199, !llfi_index !1674
  %201 = fadd double %198, %200, !llfi_index !1675
  %202 = load double, double* %131, align 8, !tbaa !345, !llfi_index !1676
  %203 = fmul double %146, %202, !llfi_index !1677
  %204 = fadd double %201, %203, !llfi_index !1678
  %205 = fmul double %204, %11, !llfi_index !1679
  %206 = getelementptr inbounds double, double* %12, i64 4, !llfi_index !1680
  store double %205, double* %206, align 8, !tbaa !345, !llfi_index !1681
  %207 = load double, double* %8, align 8, !tbaa !345, !llfi_index !1682
  %208 = fmul double %53, %207, !llfi_index !1683
  %209 = load double, double* %73, align 8, !tbaa !345, !llfi_index !1684
  %210 = fmul double %84, %209, !llfi_index !1685
  %211 = fadd double %208, %210, !llfi_index !1686
  %212 = load double, double* %104, align 8, !tbaa !345, !llfi_index !1687
  %213 = fmul double %115, %212, !llfi_index !1688
  %214 = fadd double %211, %213, !llfi_index !1689
  %215 = load double, double* %135, align 8, !tbaa !345, !llfi_index !1690
  %216 = fmul double %146, %215, !llfi_index !1691
  %217 = fadd double %214, %216, !llfi_index !1692
  %218 = fmul double %217, %11, !llfi_index !1693
  %219 = getelementptr inbounds double, double* %12, i64 5, !llfi_index !1694
  store double %218, double* %219, align 8, !tbaa !345, !llfi_index !1695
  %220 = load double, double* %9, align 8, !tbaa !345, !llfi_index !1696
  %221 = fmul double %53, %220, !llfi_index !1697
  %222 = load double, double* %77, align 8, !tbaa !345, !llfi_index !1698
  %223 = fmul double %84, %222, !llfi_index !1699
  %224 = fadd double %221, %223, !llfi_index !1700
  %225 = load double, double* %108, align 8, !tbaa !345, !llfi_index !1701
  %226 = fmul double %115, %225, !llfi_index !1702
  %227 = fadd double %224, %226, !llfi_index !1703
  %228 = load double, double* %139, align 8, !tbaa !345, !llfi_index !1704
  %229 = fmul double %146, %228, !llfi_index !1705
  %230 = fadd double %227, %229, !llfi_index !1706
  %231 = fmul double %230, %11, !llfi_index !1707
  %232 = getelementptr inbounds double, double* %12, i64 6, !llfi_index !1708
  store double %231, double* %232, align 8, !tbaa !345, !llfi_index !1709
  %233 = load double, double* %10, align 8, !tbaa !345, !llfi_index !1710
  %234 = fmul double %53, %233, !llfi_index !1711
  %235 = load double, double* %81, align 8, !tbaa !345, !llfi_index !1712
  %236 = fmul double %84, %235, !llfi_index !1713
  %237 = fadd double %234, %236, !llfi_index !1714
  %238 = load double, double* %112, align 8, !tbaa !345, !llfi_index !1715
  %239 = fmul double %115, %238, !llfi_index !1716
  %240 = fadd double %237, %239, !llfi_index !1717
  %241 = load double, double* %143, align 8, !tbaa !345, !llfi_index !1718
  %242 = fmul double %146, %241, !llfi_index !1719
  %243 = fadd double %240, %242, !llfi_index !1720
  %244 = fmul double %243, %11, !llfi_index !1721
  %245 = getelementptr inbounds double, double* %12, i64 7, !llfi_index !1722
  store double %244, double* %245, align 8, !tbaa !345, !llfi_index !1723
  %246 = load double, double* %3, align 8, !tbaa !345, !llfi_index !1724
  %247 = load double, double* %1, align 8, !tbaa !345, !llfi_index !1725
  %248 = fmul double %246, %247, !llfi_index !1726
  %249 = load double, double* %4, align 8, !tbaa !345, !llfi_index !1727
  %250 = getelementptr inbounds double, double* %1, i64 1, !llfi_index !1728
  %251 = load double, double* %250, align 8, !tbaa !345, !llfi_index !1729
  %252 = fmul double %249, %251, !llfi_index !1730
  %253 = fadd double %248, %252, !llfi_index !1731
  %254 = load double, double* %5, align 8, !tbaa !345, !llfi_index !1732
  %255 = getelementptr inbounds double, double* %1, i64 2, !llfi_index !1733
  %256 = load double, double* %255, align 8, !tbaa !345, !llfi_index !1734
  %257 = fmul double %254, %256, !llfi_index !1735
  %258 = fadd double %253, %257, !llfi_index !1736
  %259 = load double, double* %6, align 8, !tbaa !345, !llfi_index !1737
  %260 = getelementptr inbounds double, double* %1, i64 3, !llfi_index !1738
  %261 = load double, double* %260, align 8, !tbaa !345, !llfi_index !1739
  %262 = fmul double %259, %261, !llfi_index !1740
  %263 = fadd double %258, %262, !llfi_index !1741
  %264 = load double, double* %7, align 8, !tbaa !345, !llfi_index !1742
  %265 = getelementptr inbounds double, double* %1, i64 4, !llfi_index !1743
  %266 = load double, double* %265, align 8, !tbaa !345, !llfi_index !1744
  %267 = fmul double %264, %266, !llfi_index !1745
  %268 = fadd double %263, %267, !llfi_index !1746
  %269 = load double, double* %8, align 8, !tbaa !345, !llfi_index !1747
  %270 = getelementptr inbounds double, double* %1, i64 5, !llfi_index !1748
  %271 = load double, double* %270, align 8, !tbaa !345, !llfi_index !1749
  %272 = fmul double %269, %271, !llfi_index !1750
  %273 = fadd double %268, %272, !llfi_index !1751
  %274 = load double, double* %9, align 8, !tbaa !345, !llfi_index !1752
  %275 = getelementptr inbounds double, double* %1, i64 6, !llfi_index !1753
  %276 = load double, double* %275, align 8, !tbaa !345, !llfi_index !1754
  %277 = fmul double %274, %276, !llfi_index !1755
  %278 = fadd double %273, %277, !llfi_index !1756
  %279 = load double, double* %10, align 8, !tbaa !345, !llfi_index !1757
  %280 = getelementptr inbounds double, double* %1, i64 7, !llfi_index !1758
  %281 = load double, double* %280, align 8, !tbaa !345, !llfi_index !1759
  %282 = fmul double %279, %281, !llfi_index !1760
  %283 = fadd double %278, %282, !llfi_index !1761
  %284 = load double, double* %54, align 8, !tbaa !345, !llfi_index !1762
  %285 = fmul double %247, %284, !llfi_index !1763
  %286 = load double, double* %57, align 8, !tbaa !345, !llfi_index !1764
  %287 = fmul double %251, %286, !llfi_index !1765
  %288 = fadd double %285, %287, !llfi_index !1766
  %289 = load double, double* %61, align 8, !tbaa !345, !llfi_index !1767
  %290 = fmul double %256, %289, !llfi_index !1768
  %291 = fadd double %288, %290, !llfi_index !1769
  %292 = load double, double* %65, align 8, !tbaa !345, !llfi_index !1770
  %293 = fmul double %261, %292, !llfi_index !1771
  %294 = fadd double %291, %293, !llfi_index !1772
  %295 = load double, double* %69, align 8, !tbaa !345, !llfi_index !1773
  %296 = fmul double %266, %295, !llfi_index !1774
  %297 = fadd double %294, %296, !llfi_index !1775
  %298 = load double, double* %73, align 8, !tbaa !345, !llfi_index !1776
  %299 = fmul double %271, %298, !llfi_index !1777
  %300 = fadd double %297, %299, !llfi_index !1778
  %301 = load double, double* %77, align 8, !tbaa !345, !llfi_index !1779
  %302 = fmul double %276, %301, !llfi_index !1780
  %303 = fadd double %300, %302, !llfi_index !1781
  %304 = load double, double* %81, align 8, !tbaa !345, !llfi_index !1782
  %305 = fmul double %281, %304, !llfi_index !1783
  %306 = fadd double %303, %305, !llfi_index !1784
  %307 = load double, double* %85, align 8, !tbaa !345, !llfi_index !1785
  %308 = fmul double %247, %307, !llfi_index !1786
  %309 = load double, double* %88, align 8, !tbaa !345, !llfi_index !1787
  %310 = fmul double %251, %309, !llfi_index !1788
  %311 = fadd double %308, %310, !llfi_index !1789
  %312 = load double, double* %92, align 8, !tbaa !345, !llfi_index !1790
  %313 = fmul double %256, %312, !llfi_index !1791
  %314 = fadd double %311, %313, !llfi_index !1792
  %315 = load double, double* %96, align 8, !tbaa !345, !llfi_index !1793
  %316 = fmul double %261, %315, !llfi_index !1794
  %317 = fadd double %314, %316, !llfi_index !1795
  %318 = load double, double* %100, align 8, !tbaa !345, !llfi_index !1796
  %319 = fmul double %266, %318, !llfi_index !1797
  %320 = fadd double %317, %319, !llfi_index !1798
  %321 = load double, double* %104, align 8, !tbaa !345, !llfi_index !1799
  %322 = fmul double %271, %321, !llfi_index !1800
  %323 = fadd double %320, %322, !llfi_index !1801
  %324 = load double, double* %108, align 8, !tbaa !345, !llfi_index !1802
  %325 = fmul double %276, %324, !llfi_index !1803
  %326 = fadd double %323, %325, !llfi_index !1804
  %327 = load double, double* %112, align 8, !tbaa !345, !llfi_index !1805
  %328 = fmul double %281, %327, !llfi_index !1806
  %329 = fadd double %326, %328, !llfi_index !1807
  %330 = load double, double* %116, align 8, !tbaa !345, !llfi_index !1808
  %331 = fmul double %247, %330, !llfi_index !1809
  %332 = load double, double* %119, align 8, !tbaa !345, !llfi_index !1810
  %333 = fmul double %251, %332, !llfi_index !1811
  %334 = fadd double %331, %333, !llfi_index !1812
  %335 = load double, double* %123, align 8, !tbaa !345, !llfi_index !1813
  %336 = fmul double %256, %335, !llfi_index !1814
  %337 = fadd double %334, %336, !llfi_index !1815
  %338 = load double, double* %127, align 8, !tbaa !345, !llfi_index !1816
  %339 = fmul double %261, %338, !llfi_index !1817
  %340 = fadd double %337, %339, !llfi_index !1818
  %341 = load double, double* %131, align 8, !tbaa !345, !llfi_index !1819
  %342 = fmul double %266, %341, !llfi_index !1820
  %343 = fadd double %340, %342, !llfi_index !1821
  %344 = load double, double* %135, align 8, !tbaa !345, !llfi_index !1822
  %345 = fmul double %271, %344, !llfi_index !1823
  %346 = fadd double %343, %345, !llfi_index !1824
  %347 = load double, double* %139, align 8, !tbaa !345, !llfi_index !1825
  %348 = fmul double %276, %347, !llfi_index !1826
  %349 = fadd double %346, %348, !llfi_index !1827
  %350 = load double, double* %143, align 8, !tbaa !345, !llfi_index !1828
  %351 = fmul double %281, %350, !llfi_index !1829
  %352 = fadd double %349, %351, !llfi_index !1830
  %353 = fmul double %246, %283, !llfi_index !1831
  %354 = fmul double %284, %306, !llfi_index !1832
  %355 = fadd double %353, %354, !llfi_index !1833
  %356 = fmul double %307, %329, !llfi_index !1834
  %357 = fadd double %355, %356, !llfi_index !1835
  %358 = fmul double %330, %352, !llfi_index !1836
  %359 = fadd double %357, %358, !llfi_index !1837
  %360 = fmul double %359, %11, !llfi_index !1838
  store double %360, double* %13, align 8, !tbaa !345, !llfi_index !1839
  %361 = load double, double* %4, align 8, !tbaa !345, !llfi_index !1840
  %362 = fmul double %283, %361, !llfi_index !1841
  %363 = load double, double* %57, align 8, !tbaa !345, !llfi_index !1842
  %364 = fmul double %306, %363, !llfi_index !1843
  %365 = fadd double %362, %364, !llfi_index !1844
  %366 = load double, double* %88, align 8, !tbaa !345, !llfi_index !1845
  %367 = fmul double %329, %366, !llfi_index !1846
  %368 = fadd double %365, %367, !llfi_index !1847
  %369 = load double, double* %119, align 8, !tbaa !345, !llfi_index !1848
  %370 = fmul double %352, %369, !llfi_index !1849
  %371 = fadd double %368, %370, !llfi_index !1850
  %372 = fmul double %371, %11, !llfi_index !1851
  %373 = getelementptr inbounds double, double* %13, i64 1, !llfi_index !1852
  store double %372, double* %373, align 8, !tbaa !345, !llfi_index !1853
  %374 = load double, double* %5, align 8, !tbaa !345, !llfi_index !1854
  %375 = fmul double %283, %374, !llfi_index !1855
  %376 = load double, double* %61, align 8, !tbaa !345, !llfi_index !1856
  %377 = fmul double %306, %376, !llfi_index !1857
  %378 = fadd double %375, %377, !llfi_index !1858
  %379 = load double, double* %92, align 8, !tbaa !345, !llfi_index !1859
  %380 = fmul double %329, %379, !llfi_index !1860
  %381 = fadd double %378, %380, !llfi_index !1861
  %382 = load double, double* %123, align 8, !tbaa !345, !llfi_index !1862
  %383 = fmul double %352, %382, !llfi_index !1863
  %384 = fadd double %381, %383, !llfi_index !1864
  %385 = fmul double %384, %11, !llfi_index !1865
  %386 = getelementptr inbounds double, double* %13, i64 2, !llfi_index !1866
  store double %385, double* %386, align 8, !tbaa !345, !llfi_index !1867
  %387 = load double, double* %6, align 8, !tbaa !345, !llfi_index !1868
  %388 = fmul double %283, %387, !llfi_index !1869
  %389 = load double, double* %65, align 8, !tbaa !345, !llfi_index !1870
  %390 = fmul double %306, %389, !llfi_index !1871
  %391 = fadd double %388, %390, !llfi_index !1872
  %392 = load double, double* %96, align 8, !tbaa !345, !llfi_index !1873
  %393 = fmul double %329, %392, !llfi_index !1874
  %394 = fadd double %391, %393, !llfi_index !1875
  %395 = load double, double* %127, align 8, !tbaa !345, !llfi_index !1876
  %396 = fmul double %352, %395, !llfi_index !1877
  %397 = fadd double %394, %396, !llfi_index !1878
  %398 = fmul double %397, %11, !llfi_index !1879
  %399 = getelementptr inbounds double, double* %13, i64 3, !llfi_index !1880
  store double %398, double* %399, align 8, !tbaa !345, !llfi_index !1881
  %400 = load double, double* %7, align 8, !tbaa !345, !llfi_index !1882
  %401 = fmul double %283, %400, !llfi_index !1883
  %402 = load double, double* %69, align 8, !tbaa !345, !llfi_index !1884
  %403 = fmul double %306, %402, !llfi_index !1885
  %404 = fadd double %401, %403, !llfi_index !1886
  %405 = load double, double* %100, align 8, !tbaa !345, !llfi_index !1887
  %406 = fmul double %329, %405, !llfi_index !1888
  %407 = fadd double %404, %406, !llfi_index !1889
  %408 = load double, double* %131, align 8, !tbaa !345, !llfi_index !1890
  %409 = fmul double %352, %408, !llfi_index !1891
  %410 = fadd double %407, %409, !llfi_index !1892
  %411 = fmul double %410, %11, !llfi_index !1893
  %412 = getelementptr inbounds double, double* %13, i64 4, !llfi_index !1894
  store double %411, double* %412, align 8, !tbaa !345, !llfi_index !1895
  %413 = load double, double* %8, align 8, !tbaa !345, !llfi_index !1896
  %414 = fmul double %283, %413, !llfi_index !1897
  %415 = load double, double* %73, align 8, !tbaa !345, !llfi_index !1898
  %416 = fmul double %306, %415, !llfi_index !1899
  %417 = fadd double %414, %416, !llfi_index !1900
  %418 = load double, double* %104, align 8, !tbaa !345, !llfi_index !1901
  %419 = fmul double %329, %418, !llfi_index !1902
  %420 = fadd double %417, %419, !llfi_index !1903
  %421 = load double, double* %135, align 8, !tbaa !345, !llfi_index !1904
  %422 = fmul double %352, %421, !llfi_index !1905
  %423 = fadd double %420, %422, !llfi_index !1906
  %424 = fmul double %423, %11, !llfi_index !1907
  %425 = getelementptr inbounds double, double* %13, i64 5, !llfi_index !1908
  store double %424, double* %425, align 8, !tbaa !345, !llfi_index !1909
  %426 = load double, double* %9, align 8, !tbaa !345, !llfi_index !1910
  %427 = fmul double %283, %426, !llfi_index !1911
  %428 = load double, double* %77, align 8, !tbaa !345, !llfi_index !1912
  %429 = fmul double %306, %428, !llfi_index !1913
  %430 = fadd double %427, %429, !llfi_index !1914
  %431 = load double, double* %108, align 8, !tbaa !345, !llfi_index !1915
  %432 = fmul double %329, %431, !llfi_index !1916
  %433 = fadd double %430, %432, !llfi_index !1917
  %434 = load double, double* %139, align 8, !tbaa !345, !llfi_index !1918
  %435 = fmul double %352, %434, !llfi_index !1919
  %436 = fadd double %433, %435, !llfi_index !1920
  %437 = fmul double %436, %11, !llfi_index !1921
  %438 = getelementptr inbounds double, double* %13, i64 6, !llfi_index !1922
  store double %437, double* %438, align 8, !tbaa !345, !llfi_index !1923
  %439 = load double, double* %10, align 8, !tbaa !345, !llfi_index !1924
  %440 = fmul double %283, %439, !llfi_index !1925
  %441 = load double, double* %81, align 8, !tbaa !345, !llfi_index !1926
  %442 = fmul double %306, %441, !llfi_index !1927
  %443 = fadd double %440, %442, !llfi_index !1928
  %444 = load double, double* %112, align 8, !tbaa !345, !llfi_index !1929
  %445 = fmul double %329, %444, !llfi_index !1930
  %446 = fadd double %443, %445, !llfi_index !1931
  %447 = load double, double* %143, align 8, !tbaa !345, !llfi_index !1932
  %448 = fmul double %352, %447, !llfi_index !1933
  %449 = fadd double %446, %448, !llfi_index !1934
  %450 = fmul double %449, %11, !llfi_index !1935
  %451 = getelementptr inbounds double, double* %13, i64 7, !llfi_index !1936
  store double %450, double* %451, align 8, !tbaa !345, !llfi_index !1937
  %452 = load double, double* %3, align 8, !tbaa !345, !llfi_index !1938
  %453 = load double, double* %2, align 8, !tbaa !345, !llfi_index !1939
  %454 = fmul double %452, %453, !llfi_index !1940
  %455 = load double, double* %4, align 8, !tbaa !345, !llfi_index !1941
  %456 = getelementptr inbounds double, double* %2, i64 1, !llfi_index !1942
  %457 = load double, double* %456, align 8, !tbaa !345, !llfi_index !1943
  %458 = fmul double %455, %457, !llfi_index !1944
  %459 = fadd double %454, %458, !llfi_index !1945
  %460 = load double, double* %5, align 8, !tbaa !345, !llfi_index !1946
  %461 = getelementptr inbounds double, double* %2, i64 2, !llfi_index !1947
  %462 = load double, double* %461, align 8, !tbaa !345, !llfi_index !1948
  %463 = fmul double %460, %462, !llfi_index !1949
  %464 = fadd double %459, %463, !llfi_index !1950
  %465 = load double, double* %6, align 8, !tbaa !345, !llfi_index !1951
  %466 = getelementptr inbounds double, double* %2, i64 3, !llfi_index !1952
  %467 = load double, double* %466, align 8, !tbaa !345, !llfi_index !1953
  %468 = fmul double %465, %467, !llfi_index !1954
  %469 = fadd double %464, %468, !llfi_index !1955
  %470 = load double, double* %7, align 8, !tbaa !345, !llfi_index !1956
  %471 = getelementptr inbounds double, double* %2, i64 4, !llfi_index !1957
  %472 = load double, double* %471, align 8, !tbaa !345, !llfi_index !1958
  %473 = fmul double %470, %472, !llfi_index !1959
  %474 = fadd double %469, %473, !llfi_index !1960
  %475 = load double, double* %8, align 8, !tbaa !345, !llfi_index !1961
  %476 = getelementptr inbounds double, double* %2, i64 5, !llfi_index !1962
  %477 = load double, double* %476, align 8, !tbaa !345, !llfi_index !1963
  %478 = fmul double %475, %477, !llfi_index !1964
  %479 = fadd double %474, %478, !llfi_index !1965
  %480 = load double, double* %9, align 8, !tbaa !345, !llfi_index !1966
  %481 = getelementptr inbounds double, double* %2, i64 6, !llfi_index !1967
  %482 = load double, double* %481, align 8, !tbaa !345, !llfi_index !1968
  %483 = fmul double %480, %482, !llfi_index !1969
  %484 = fadd double %479, %483, !llfi_index !1970
  %485 = load double, double* %10, align 8, !tbaa !345, !llfi_index !1971
  %486 = getelementptr inbounds double, double* %2, i64 7, !llfi_index !1972
  %487 = load double, double* %486, align 8, !tbaa !345, !llfi_index !1973
  %488 = fmul double %485, %487, !llfi_index !1974
  %489 = fadd double %484, %488, !llfi_index !1975
  %490 = load double, double* %54, align 8, !tbaa !345, !llfi_index !1976
  %491 = fmul double %453, %490, !llfi_index !1977
  %492 = load double, double* %57, align 8, !tbaa !345, !llfi_index !1978
  %493 = fmul double %457, %492, !llfi_index !1979
  %494 = fadd double %491, %493, !llfi_index !1980
  %495 = load double, double* %61, align 8, !tbaa !345, !llfi_index !1981
  %496 = fmul double %462, %495, !llfi_index !1982
  %497 = fadd double %494, %496, !llfi_index !1983
  %498 = load double, double* %65, align 8, !tbaa !345, !llfi_index !1984
  %499 = fmul double %467, %498, !llfi_index !1985
  %500 = fadd double %497, %499, !llfi_index !1986
  %501 = load double, double* %69, align 8, !tbaa !345, !llfi_index !1987
  %502 = fmul double %472, %501, !llfi_index !1988
  %503 = fadd double %500, %502, !llfi_index !1989
  %504 = load double, double* %73, align 8, !tbaa !345, !llfi_index !1990
  %505 = fmul double %477, %504, !llfi_index !1991
  %506 = fadd double %503, %505, !llfi_index !1992
  %507 = load double, double* %77, align 8, !tbaa !345, !llfi_index !1993
  %508 = fmul double %482, %507, !llfi_index !1994
  %509 = fadd double %506, %508, !llfi_index !1995
  %510 = load double, double* %81, align 8, !tbaa !345, !llfi_index !1996
  %511 = fmul double %487, %510, !llfi_index !1997
  %512 = fadd double %509, %511, !llfi_index !1998
  %513 = load double, double* %85, align 8, !tbaa !345, !llfi_index !1999
  %514 = fmul double %453, %513, !llfi_index !2000
  %515 = load double, double* %88, align 8, !tbaa !345, !llfi_index !2001
  %516 = fmul double %457, %515, !llfi_index !2002
  %517 = fadd double %514, %516, !llfi_index !2003
  %518 = load double, double* %92, align 8, !tbaa !345, !llfi_index !2004
  %519 = fmul double %462, %518, !llfi_index !2005
  %520 = fadd double %517, %519, !llfi_index !2006
  %521 = load double, double* %96, align 8, !tbaa !345, !llfi_index !2007
  %522 = fmul double %467, %521, !llfi_index !2008
  %523 = fadd double %520, %522, !llfi_index !2009
  %524 = load double, double* %100, align 8, !tbaa !345, !llfi_index !2010
  %525 = fmul double %472, %524, !llfi_index !2011
  %526 = fadd double %523, %525, !llfi_index !2012
  %527 = load double, double* %104, align 8, !tbaa !345, !llfi_index !2013
  %528 = fmul double %477, %527, !llfi_index !2014
  %529 = fadd double %526, %528, !llfi_index !2015
  %530 = load double, double* %108, align 8, !tbaa !345, !llfi_index !2016
  %531 = fmul double %482, %530, !llfi_index !2017
  %532 = fadd double %529, %531, !llfi_index !2018
  %533 = load double, double* %112, align 8, !tbaa !345, !llfi_index !2019
  %534 = fmul double %487, %533, !llfi_index !2020
  %535 = fadd double %532, %534, !llfi_index !2021
  %536 = load double, double* %116, align 8, !tbaa !345, !llfi_index !2022
  %537 = fmul double %453, %536, !llfi_index !2023
  %538 = load double, double* %119, align 8, !tbaa !345, !llfi_index !2024
  %539 = fmul double %457, %538, !llfi_index !2025
  %540 = fadd double %537, %539, !llfi_index !2026
  %541 = load double, double* %123, align 8, !tbaa !345, !llfi_index !2027
  %542 = fmul double %462, %541, !llfi_index !2028
  %543 = fadd double %540, %542, !llfi_index !2029
  %544 = load double, double* %127, align 8, !tbaa !345, !llfi_index !2030
  %545 = fmul double %467, %544, !llfi_index !2031
  %546 = fadd double %543, %545, !llfi_index !2032
  %547 = load double, double* %131, align 8, !tbaa !345, !llfi_index !2033
  %548 = fmul double %472, %547, !llfi_index !2034
  %549 = fadd double %546, %548, !llfi_index !2035
  %550 = load double, double* %135, align 8, !tbaa !345, !llfi_index !2036
  %551 = fmul double %477, %550, !llfi_index !2037
  %552 = fadd double %549, %551, !llfi_index !2038
  %553 = load double, double* %139, align 8, !tbaa !345, !llfi_index !2039
  %554 = fmul double %482, %553, !llfi_index !2040
  %555 = fadd double %552, %554, !llfi_index !2041
  %556 = load double, double* %143, align 8, !tbaa !345, !llfi_index !2042
  %557 = fmul double %487, %556, !llfi_index !2043
  %558 = fadd double %555, %557, !llfi_index !2044
  %559 = fmul double %452, %489, !llfi_index !2045
  %560 = fmul double %490, %512, !llfi_index !2046
  %561 = fadd double %559, %560, !llfi_index !2047
  %562 = fmul double %513, %535, !llfi_index !2048
  %563 = fadd double %561, %562, !llfi_index !2049
  %564 = fmul double %536, %558, !llfi_index !2050
  %565 = fadd double %563, %564, !llfi_index !2051
  %566 = fmul double %565, %11, !llfi_index !2052
  store double %566, double* %14, align 8, !tbaa !345, !llfi_index !2053
  %567 = load double, double* %4, align 8, !tbaa !345, !llfi_index !2054
  %568 = fmul double %489, %567, !llfi_index !2055
  %569 = load double, double* %57, align 8, !tbaa !345, !llfi_index !2056
  %570 = fmul double %512, %569, !llfi_index !2057
  %571 = fadd double %568, %570, !llfi_index !2058
  %572 = load double, double* %88, align 8, !tbaa !345, !llfi_index !2059
  %573 = fmul double %535, %572, !llfi_index !2060
  %574 = fadd double %571, %573, !llfi_index !2061
  %575 = load double, double* %119, align 8, !tbaa !345, !llfi_index !2062
  %576 = fmul double %558, %575, !llfi_index !2063
  %577 = fadd double %574, %576, !llfi_index !2064
  %578 = fmul double %577, %11, !llfi_index !2065
  %579 = getelementptr inbounds double, double* %14, i64 1, !llfi_index !2066
  store double %578, double* %579, align 8, !tbaa !345, !llfi_index !2067
  %580 = load double, double* %5, align 8, !tbaa !345, !llfi_index !2068
  %581 = fmul double %489, %580, !llfi_index !2069
  %582 = load double, double* %61, align 8, !tbaa !345, !llfi_index !2070
  %583 = fmul double %512, %582, !llfi_index !2071
  %584 = fadd double %581, %583, !llfi_index !2072
  %585 = load double, double* %92, align 8, !tbaa !345, !llfi_index !2073
  %586 = fmul double %535, %585, !llfi_index !2074
  %587 = fadd double %584, %586, !llfi_index !2075
  %588 = load double, double* %123, align 8, !tbaa !345, !llfi_index !2076
  %589 = fmul double %558, %588, !llfi_index !2077
  %590 = fadd double %587, %589, !llfi_index !2078
  %591 = fmul double %590, %11, !llfi_index !2079
  %592 = getelementptr inbounds double, double* %14, i64 2, !llfi_index !2080
  store double %591, double* %592, align 8, !tbaa !345, !llfi_index !2081
  %593 = load double, double* %6, align 8, !tbaa !345, !llfi_index !2082
  %594 = fmul double %489, %593, !llfi_index !2083
  %595 = load double, double* %65, align 8, !tbaa !345, !llfi_index !2084
  %596 = fmul double %512, %595, !llfi_index !2085
  %597 = fadd double %594, %596, !llfi_index !2086
  %598 = load double, double* %96, align 8, !tbaa !345, !llfi_index !2087
  %599 = fmul double %535, %598, !llfi_index !2088
  %600 = fadd double %597, %599, !llfi_index !2089
  %601 = load double, double* %127, align 8, !tbaa !345, !llfi_index !2090
  %602 = fmul double %558, %601, !llfi_index !2091
  %603 = fadd double %600, %602, !llfi_index !2092
  %604 = fmul double %603, %11, !llfi_index !2093
  %605 = getelementptr inbounds double, double* %14, i64 3, !llfi_index !2094
  store double %604, double* %605, align 8, !tbaa !345, !llfi_index !2095
  %606 = load double, double* %7, align 8, !tbaa !345, !llfi_index !2096
  %607 = fmul double %489, %606, !llfi_index !2097
  %608 = load double, double* %69, align 8, !tbaa !345, !llfi_index !2098
  %609 = fmul double %512, %608, !llfi_index !2099
  %610 = fadd double %607, %609, !llfi_index !2100
  %611 = load double, double* %100, align 8, !tbaa !345, !llfi_index !2101
  %612 = fmul double %535, %611, !llfi_index !2102
  %613 = fadd double %610, %612, !llfi_index !2103
  %614 = load double, double* %131, align 8, !tbaa !345, !llfi_index !2104
  %615 = fmul double %558, %614, !llfi_index !2105
  %616 = fadd double %613, %615, !llfi_index !2106
  %617 = fmul double %616, %11, !llfi_index !2107
  %618 = getelementptr inbounds double, double* %14, i64 4, !llfi_index !2108
  store double %617, double* %618, align 8, !tbaa !345, !llfi_index !2109
  %619 = load double, double* %8, align 8, !tbaa !345, !llfi_index !2110
  %620 = fmul double %489, %619, !llfi_index !2111
  %621 = load double, double* %73, align 8, !tbaa !345, !llfi_index !2112
  %622 = fmul double %512, %621, !llfi_index !2113
  %623 = fadd double %620, %622, !llfi_index !2114
  %624 = load double, double* %104, align 8, !tbaa !345, !llfi_index !2115
  %625 = fmul double %535, %624, !llfi_index !2116
  %626 = fadd double %623, %625, !llfi_index !2117
  %627 = load double, double* %135, align 8, !tbaa !345, !llfi_index !2118
  %628 = fmul double %558, %627, !llfi_index !2119
  %629 = fadd double %626, %628, !llfi_index !2120
  %630 = fmul double %629, %11, !llfi_index !2121
  %631 = getelementptr inbounds double, double* %14, i64 5, !llfi_index !2122
  store double %630, double* %631, align 8, !tbaa !345, !llfi_index !2123
  %632 = load double, double* %9, align 8, !tbaa !345, !llfi_index !2124
  %633 = fmul double %489, %632, !llfi_index !2125
  %634 = load double, double* %77, align 8, !tbaa !345, !llfi_index !2126
  %635 = fmul double %512, %634, !llfi_index !2127
  %636 = fadd double %633, %635, !llfi_index !2128
  %637 = load double, double* %108, align 8, !tbaa !345, !llfi_index !2129
  %638 = fmul double %535, %637, !llfi_index !2130
  %639 = fadd double %636, %638, !llfi_index !2131
  %640 = load double, double* %139, align 8, !tbaa !345, !llfi_index !2132
  %641 = fmul double %558, %640, !llfi_index !2133
  %642 = fadd double %639, %641, !llfi_index !2134
  %643 = fmul double %642, %11, !llfi_index !2135
  %644 = getelementptr inbounds double, double* %14, i64 6, !llfi_index !2136
  store double %643, double* %644, align 8, !tbaa !345, !llfi_index !2137
  %645 = load double, double* %10, align 8, !tbaa !345, !llfi_index !2138
  %646 = fmul double %489, %645, !llfi_index !2139
  %647 = load double, double* %81, align 8, !tbaa !345, !llfi_index !2140
  %648 = fmul double %512, %647, !llfi_index !2141
  %649 = fadd double %646, %648, !llfi_index !2142
  %650 = load double, double* %112, align 8, !tbaa !345, !llfi_index !2143
  %651 = fmul double %535, %650, !llfi_index !2144
  %652 = fadd double %649, %651, !llfi_index !2145
  %653 = load double, double* %143, align 8, !tbaa !345, !llfi_index !2146
  %654 = fmul double %558, %653, !llfi_index !2147
  %655 = fadd double %652, %654, !llfi_index !2148
  %656 = fmul double %655, %11, !llfi_index !2149
  %657 = getelementptr inbounds double, double* %14, i64 7, !llfi_index !2150
  store double %656, double* %657, align 8, !tbaa !345, !llfi_index !2151
  ret void, !llfi_index !2152
}

; Function Attrs: mustprogress nofree noinline nosync nounwind uwtable
define dso_local void @_Z28CalcFBHourglassForceForElemsPdS_S_S_S_S_S_d(double* nocapture readonly %0, double* nocapture readonly %1, double* nocapture readonly %2, double* nocapture readonly %3, double* nocapture readonly %4, double* nocapture readonly %5, double* nocapture readonly %6, double %7) local_unnamed_addr #7 {
  %9 = alloca [8 x double], align 16, !llfi_index !2153
  %10 = alloca [8 x double], align 16, !llfi_index !2154
  %11 = alloca [8 x double], align 16, !llfi_index !2155
  %12 = alloca [4 x [8 x double]], align 16, !llfi_index !2156
  %13 = alloca [4 x double], align 16, !llfi_index !2157
  %14 = alloca [4 x double], align 16, !llfi_index !2158
  %15 = alloca [4 x double], align 16, !llfi_index !2159
  %16 = alloca [4 x double], align 16, !llfi_index !2160
  %17 = alloca [4 x double], align 16, !llfi_index !2161
  %18 = alloca [4 x double], align 16, !llfi_index !2162
  %19 = alloca [4 x double], align 16, !llfi_index !2163
  %20 = alloca [4 x double], align 16, !llfi_index !2164
  %21 = alloca [8 x double], align 16, !llfi_index !2165
  %22 = alloca [8 x double], align 16, !llfi_index !2166
  %23 = alloca [8 x double], align 16, !llfi_index !2167
  %24 = load i32, i32* getelementptr inbounds (%struct.Mesh, %struct.Mesh* @mesh, i64 0, i32 79), align 8, !tbaa !404, !llfi_index !2168
  %25 = bitcast [8 x double]* %9 to i8*, !llfi_index !2169
  call void @llvm.lifetime.start.p0i8(i64 64, i8* nonnull %25) #2, !llfi_index !2170
  %26 = bitcast [8 x double]* %10 to i8*, !llfi_index !2171
  call void @llvm.lifetime.start.p0i8(i64 64, i8* nonnull %26) #2, !llfi_index !2172
  %27 = bitcast [8 x double]* %11 to i8*, !llfi_index !2173
  call void @llvm.lifetime.start.p0i8(i64 64, i8* nonnull %27) #2, !llfi_index !2174
  %28 = bitcast [4 x [8 x double]]* %12 to i8*, !llfi_index !2175
  call void @llvm.lifetime.start.p0i8(i64 256, i8* nonnull %28) #2, !llfi_index !2176
  %29 = bitcast [4 x double]* %13 to i8*, !llfi_index !2177
  call void @llvm.lifetime.start.p0i8(i64 32, i8* nonnull %29) #2, !llfi_index !2178
  %30 = bitcast [4 x double]* %14 to i8*, !llfi_index !2179
  call void @llvm.lifetime.start.p0i8(i64 32, i8* nonnull %30) #2, !llfi_index !2180
  %31 = bitcast [4 x double]* %15 to i8*, !llfi_index !2181
  call void @llvm.lifetime.start.p0i8(i64 32, i8* nonnull %31) #2, !llfi_index !2182
  %32 = bitcast [4 x double]* %16 to i8*, !llfi_index !2183
  call void @llvm.lifetime.start.p0i8(i64 32, i8* nonnull %32) #2, !llfi_index !2184
  %33 = bitcast [4 x double]* %17 to i8*, !llfi_index !2185
  call void @llvm.lifetime.start.p0i8(i64 32, i8* nonnull %33) #2, !llfi_index !2186
  %34 = bitcast [4 x double]* %18 to i8*, !llfi_index !2187
  call void @llvm.lifetime.start.p0i8(i64 32, i8* nonnull %34) #2, !llfi_index !2188
  %35 = bitcast [4 x double]* %19 to i8*, !llfi_index !2189
  call void @llvm.lifetime.start.p0i8(i64 32, i8* nonnull %35) #2, !llfi_index !2190
  %36 = bitcast [4 x double]* %20 to i8*, !llfi_index !2191
  call void @llvm.lifetime.start.p0i8(i64 32, i8* nonnull %36) #2, !llfi_index !2192
  %37 = bitcast [8 x double]* %21 to i8*, !llfi_index !2193
  call void @llvm.lifetime.start.p0i8(i64 64, i8* nonnull %37) #2, !llfi_index !2194
  %38 = bitcast [8 x double]* %22 to i8*, !llfi_index !2195
  call void @llvm.lifetime.start.p0i8(i64 64, i8* nonnull %38) #2, !llfi_index !2196
  %39 = bitcast [8 x double]* %23 to i8*, !llfi_index !2197
  call void @llvm.lifetime.start.p0i8(i64 64, i8* nonnull %39) #2, !llfi_index !2198
  %40 = bitcast [4 x [8 x double]]* %12 to <2 x double>*, !llfi_index !2199
  store <2 x double> <double 1.000000e+00, double 1.000000e+00>, <2 x double>* %40, align 16, !tbaa !345, !llfi_index !2200
  %41 = getelementptr inbounds [4 x [8 x double]], [4 x [8 x double]]* %12, i64 0, i64 0, i64 2, !llfi_index !2201
  %42 = bitcast double* %41 to <2 x double>*, !llfi_index !2202
  store <2 x double> <double -1.000000e+00, double -1.000000e+00>, <2 x double>* %42, align 16, !tbaa !345, !llfi_index !2203
  %43 = getelementptr inbounds [4 x [8 x double]], [4 x [8 x double]]* %12, i64 0, i64 0, i64 4, !llfi_index !2204
  %44 = bitcast double* %43 to <2 x double>*, !llfi_index !2205
  store <2 x double> <double -1.000000e+00, double -1.000000e+00>, <2 x double>* %44, align 16, !tbaa !345, !llfi_index !2206
  %45 = getelementptr inbounds [4 x [8 x double]], [4 x [8 x double]]* %12, i64 0, i64 0, i64 6, !llfi_index !2207
  %46 = bitcast double* %45 to <2 x double>*, !llfi_index !2208
  store <2 x double> <double 1.000000e+00, double 1.000000e+00>, <2 x double>* %46, align 16, !tbaa !345, !llfi_index !2209
  %47 = getelementptr inbounds [4 x [8 x double]], [4 x [8 x double]]* %12, i64 0, i64 1, i64 0, !llfi_index !2210
  %48 = bitcast double* %47 to <2 x double>*, !llfi_index !2211
  store <2 x double> <double 1.000000e+00, double -1.000000e+00>, <2 x double>* %48, align 16, !tbaa !345, !llfi_index !2212
  %49 = getelementptr inbounds [4 x [8 x double]], [4 x [8 x double]]* %12, i64 0, i64 1, i64 2, !llfi_index !2213
  %50 = bitcast double* %49 to <2 x double>*, !llfi_index !2214
  store <2 x double> <double -1.000000e+00, double 1.000000e+00>, <2 x double>* %50, align 16, !tbaa !345, !llfi_index !2215
  %51 = getelementptr inbounds [4 x [8 x double]], [4 x [8 x double]]* %12, i64 0, i64 1, i64 4, !llfi_index !2216
  %52 = bitcast double* %51 to <2 x double>*, !llfi_index !2217
  store <2 x double> <double -1.000000e+00, double 1.000000e+00>, <2 x double>* %52, align 16, !tbaa !345, !llfi_index !2218
  %53 = getelementptr inbounds [4 x [8 x double]], [4 x [8 x double]]* %12, i64 0, i64 1, i64 6, !llfi_index !2219
  %54 = bitcast double* %53 to <2 x double>*, !llfi_index !2220
  store <2 x double> <double 1.000000e+00, double -1.000000e+00>, <2 x double>* %54, align 16, !tbaa !345, !llfi_index !2221
  %55 = getelementptr inbounds [4 x [8 x double]], [4 x [8 x double]]* %12, i64 0, i64 2, i64 0, !llfi_index !2222
  %56 = bitcast double* %55 to <2 x double>*, !llfi_index !2223
  store <2 x double> <double 1.000000e+00, double -1.000000e+00>, <2 x double>* %56, align 16, !tbaa !345, !llfi_index !2224
  %57 = getelementptr inbounds [4 x [8 x double]], [4 x [8 x double]]* %12, i64 0, i64 2, i64 2, !llfi_index !2225
  %58 = bitcast double* %57 to <2 x double>*, !llfi_index !2226
  store <2 x double> <double 1.000000e+00, double -1.000000e+00>, <2 x double>* %58, align 16, !tbaa !345, !llfi_index !2227
  %59 = getelementptr inbounds [4 x [8 x double]], [4 x [8 x double]]* %12, i64 0, i64 2, i64 4, !llfi_index !2228
  %60 = bitcast double* %59 to <2 x double>*, !llfi_index !2229
  store <2 x double> <double 1.000000e+00, double -1.000000e+00>, <2 x double>* %60, align 16, !tbaa !345, !llfi_index !2230
  %61 = getelementptr inbounds [4 x [8 x double]], [4 x [8 x double]]* %12, i64 0, i64 2, i64 6, !llfi_index !2231
  %62 = bitcast double* %61 to <2 x double>*, !llfi_index !2232
  store <2 x double> <double 1.000000e+00, double -1.000000e+00>, <2 x double>* %62, align 16, !tbaa !345, !llfi_index !2233
  %63 = getelementptr inbounds [4 x [8 x double]], [4 x [8 x double]]* %12, i64 0, i64 3, i64 0, !llfi_index !2234
  %64 = bitcast double* %63 to <2 x double>*, !llfi_index !2235
  store <2 x double> <double -1.000000e+00, double 1.000000e+00>, <2 x double>* %64, align 16, !tbaa !345, !llfi_index !2236
  %65 = getelementptr inbounds [4 x [8 x double]], [4 x [8 x double]]* %12, i64 0, i64 3, i64 2, !llfi_index !2237
  %66 = bitcast double* %65 to <2 x double>*, !llfi_index !2238
  store <2 x double> <double -1.000000e+00, double 1.000000e+00>, <2 x double>* %66, align 16, !tbaa !345, !llfi_index !2239
  %67 = getelementptr inbounds [4 x [8 x double]], [4 x [8 x double]]* %12, i64 0, i64 3, i64 4, !llfi_index !2240
  %68 = bitcast double* %67 to <2 x double>*, !llfi_index !2241
  store <2 x double> <double 1.000000e+00, double -1.000000e+00>, <2 x double>* %68, align 16, !tbaa !345, !llfi_index !2242
  %69 = getelementptr inbounds [4 x [8 x double]], [4 x [8 x double]]* %12, i64 0, i64 3, i64 6, !llfi_index !2243
  %70 = bitcast double* %69 to <2 x double>*, !llfi_index !2244
  store <2 x double> <double 1.000000e+00, double -1.000000e+00>, <2 x double>* %70, align 16, !tbaa !345, !llfi_index !2245
  %71 = getelementptr inbounds [8 x double], [8 x double]* %21, i64 0, i64 0, !llfi_index !2246
  %72 = getelementptr inbounds [8 x double], [8 x double]* %21, i64 0, i64 1, !llfi_index !2247
  %73 = getelementptr inbounds [8 x double], [8 x double]* %21, i64 0, i64 2, !llfi_index !2248
  %74 = getelementptr inbounds [8 x double], [8 x double]* %21, i64 0, i64 3, !llfi_index !2249
  %75 = getelementptr inbounds [8 x double], [8 x double]* %21, i64 0, i64 4, !llfi_index !2250
  %76 = getelementptr inbounds [8 x double], [8 x double]* %21, i64 0, i64 5, !llfi_index !2251
  %77 = getelementptr inbounds [8 x double], [8 x double]* %21, i64 0, i64 6, !llfi_index !2252
  %78 = getelementptr inbounds [8 x double], [8 x double]* %21, i64 0, i64 7, !llfi_index !2253
  %79 = getelementptr inbounds [8 x double], [8 x double]* %22, i64 0, i64 0, !llfi_index !2254
  %80 = getelementptr inbounds [8 x double], [8 x double]* %22, i64 0, i64 1, !llfi_index !2255
  %81 = getelementptr inbounds [8 x double], [8 x double]* %22, i64 0, i64 2, !llfi_index !2256
  %82 = getelementptr inbounds [8 x double], [8 x double]* %22, i64 0, i64 3, !llfi_index !2257
  %83 = getelementptr inbounds [8 x double], [8 x double]* %22, i64 0, i64 4, !llfi_index !2258
  %84 = getelementptr inbounds [8 x double], [8 x double]* %22, i64 0, i64 5, !llfi_index !2259
  %85 = getelementptr inbounds [8 x double], [8 x double]* %22, i64 0, i64 6, !llfi_index !2260
  %86 = getelementptr inbounds [8 x double], [8 x double]* %22, i64 0, i64 7, !llfi_index !2261
  %87 = getelementptr inbounds [8 x double], [8 x double]* %23, i64 0, i64 0, !llfi_index !2262
  %88 = getelementptr inbounds [8 x double], [8 x double]* %23, i64 0, i64 1, !llfi_index !2263
  %89 = getelementptr inbounds [8 x double], [8 x double]* %23, i64 0, i64 2, !llfi_index !2264
  %90 = getelementptr inbounds [8 x double], [8 x double]* %23, i64 0, i64 3, !llfi_index !2265
  %91 = getelementptr inbounds [8 x double], [8 x double]* %23, i64 0, i64 4, !llfi_index !2266
  %92 = getelementptr inbounds [8 x double], [8 x double]* %23, i64 0, i64 5, !llfi_index !2267
  %93 = getelementptr inbounds [8 x double], [8 x double]* %23, i64 0, i64 6, !llfi_index !2268
  %94 = getelementptr inbounds [8 x double], [8 x double]* %23, i64 0, i64 7, !llfi_index !2269
  %95 = fmul double %7, -1.000000e-02, !llfi_index !2270
  %96 = getelementptr inbounds [4 x double], [4 x double]* %13, i64 0, i64 0, !llfi_index !2271
  %97 = getelementptr inbounds [4 x double], [4 x double]* %14, i64 0, i64 0, !llfi_index !2272
  %98 = getelementptr inbounds [4 x double], [4 x double]* %15, i64 0, i64 0, !llfi_index !2273
  %99 = getelementptr inbounds [4 x double], [4 x double]* %16, i64 0, i64 0, !llfi_index !2274
  %100 = getelementptr inbounds [4 x double], [4 x double]* %17, i64 0, i64 0, !llfi_index !2275
  %101 = getelementptr inbounds [4 x double], [4 x double]* %18, i64 0, i64 0, !llfi_index !2276
  %102 = getelementptr inbounds [4 x double], [4 x double]* %19, i64 0, i64 0, !llfi_index !2277
  %103 = getelementptr inbounds [4 x double], [4 x double]* %20, i64 0, i64 0, !llfi_index !2278
  %104 = getelementptr inbounds [8 x double], [8 x double]* %9, i64 0, i64 0, !llfi_index !2279
  %105 = getelementptr inbounds [8 x double], [8 x double]* %10, i64 0, i64 0, !llfi_index !2280
  %106 = getelementptr inbounds [8 x double], [8 x double]* %11, i64 0, i64 0, !llfi_index !2281
  %107 = getelementptr inbounds [8 x double], [8 x double]* %9, i64 0, i64 1, !llfi_index !2282
  %108 = getelementptr inbounds [8 x double], [8 x double]* %10, i64 0, i64 1, !llfi_index !2283
  %109 = getelementptr inbounds [8 x double], [8 x double]* %11, i64 0, i64 1, !llfi_index !2284
  %110 = getelementptr inbounds [8 x double], [8 x double]* %9, i64 0, i64 2, !llfi_index !2285
  %111 = getelementptr inbounds [8 x double], [8 x double]* %10, i64 0, i64 2, !llfi_index !2286
  %112 = getelementptr inbounds [8 x double], [8 x double]* %11, i64 0, i64 2, !llfi_index !2287
  %113 = getelementptr inbounds [8 x double], [8 x double]* %9, i64 0, i64 3, !llfi_index !2288
  %114 = getelementptr inbounds [8 x double], [8 x double]* %10, i64 0, i64 3, !llfi_index !2289
  %115 = getelementptr inbounds [8 x double], [8 x double]* %11, i64 0, i64 3, !llfi_index !2290
  %116 = getelementptr inbounds [8 x double], [8 x double]* %9, i64 0, i64 4, !llfi_index !2291
  %117 = getelementptr inbounds [8 x double], [8 x double]* %10, i64 0, i64 4, !llfi_index !2292
  %118 = getelementptr inbounds [8 x double], [8 x double]* %11, i64 0, i64 4, !llfi_index !2293
  %119 = getelementptr inbounds [8 x double], [8 x double]* %9, i64 0, i64 5, !llfi_index !2294
  %120 = getelementptr inbounds [8 x double], [8 x double]* %10, i64 0, i64 5, !llfi_index !2295
  %121 = getelementptr inbounds [8 x double], [8 x double]* %11, i64 0, i64 5, !llfi_index !2296
  %122 = getelementptr inbounds [8 x double], [8 x double]* %9, i64 0, i64 6, !llfi_index !2297
  %123 = getelementptr inbounds [8 x double], [8 x double]* %10, i64 0, i64 6, !llfi_index !2298
  %124 = getelementptr inbounds [8 x double], [8 x double]* %11, i64 0, i64 6, !llfi_index !2299
  %125 = getelementptr inbounds [8 x double], [8 x double]* %9, i64 0, i64 7, !llfi_index !2300
  %126 = getelementptr inbounds [8 x double], [8 x double]* %10, i64 0, i64 7, !llfi_index !2301
  %127 = getelementptr inbounds [8 x double], [8 x double]* %11, i64 0, i64 7, !llfi_index !2302
  %128 = icmp sgt i32 %24, 0, !llfi_index !2303
  br i1 %128, label %129, label %.loopexit, !llfi_index !2304

129:                                              ; preds = %8
  %130 = zext i32 %24 to i64, !llfi_index !2305
  br label %131, !llfi_index !2306

.loopexit:                                        ; preds = %471, %8
  call void @llvm.lifetime.end.p0i8(i64 64, i8* nonnull %39) #2, !llfi_index !2307
  call void @llvm.lifetime.end.p0i8(i64 64, i8* nonnull %38) #2, !llfi_index !2308
  call void @llvm.lifetime.end.p0i8(i64 64, i8* nonnull %37) #2, !llfi_index !2309
  call void @llvm.lifetime.end.p0i8(i64 32, i8* nonnull %36) #2, !llfi_index !2310
  call void @llvm.lifetime.end.p0i8(i64 32, i8* nonnull %35) #2, !llfi_index !2311
  call void @llvm.lifetime.end.p0i8(i64 32, i8* nonnull %34) #2, !llfi_index !2312
  call void @llvm.lifetime.end.p0i8(i64 32, i8* nonnull %33) #2, !llfi_index !2313
  call void @llvm.lifetime.end.p0i8(i64 32, i8* nonnull %32) #2, !llfi_index !2314
  call void @llvm.lifetime.end.p0i8(i64 32, i8* nonnull %31) #2, !llfi_index !2315
  call void @llvm.lifetime.end.p0i8(i64 32, i8* nonnull %30) #2, !llfi_index !2316
  call void @llvm.lifetime.end.p0i8(i64 32, i8* nonnull %29) #2, !llfi_index !2317
  call void @llvm.lifetime.end.p0i8(i64 256, i8* nonnull %28) #2, !llfi_index !2318
  call void @llvm.lifetime.end.p0i8(i64 64, i8* nonnull %27) #2, !llfi_index !2319
  call void @llvm.lifetime.end.p0i8(i64 64, i8* nonnull %26) #2, !llfi_index !2320
  call void @llvm.lifetime.end.p0i8(i64 64, i8* nonnull %25) #2, !llfi_index !2321
  ret void, !llfi_index !2322

131:                                              ; preds = %471, %129
  %132 = phi i64 [ 0, %129 ], [ %656, %471 ], !llfi_index !2323
  %133 = shl nsw i64 %132, 3, !llfi_index !2324
  %134 = load i32*, i32** getelementptr inbounds (%struct.Mesh, %struct.Mesh* @mesh, i64 0, i32 17, i32 0, i32 0, i32 0, i32 0), align 8, !tbaa !168, !llfi_index !2325
  %135 = getelementptr inbounds double, double* %0, i64 %132, !llfi_index !2326
  %136 = load double, double* %135, align 8, !tbaa !345, !llfi_index !2327
  %137 = or i64 %133, 1, !llfi_index !2328
  %138 = or i64 %133, 2, !llfi_index !2329
  %139 = or i64 %133, 3, !llfi_index !2330
  %140 = or i64 %133, 4, !llfi_index !2331
  %141 = or i64 %133, 5, !llfi_index !2332
  %142 = or i64 %133, 6, !llfi_index !2333
  %143 = or i64 %133, 7, !llfi_index !2334
  %144 = getelementptr inbounds double, double* %6, i64 %143, !llfi_index !2335
  %145 = load double, double* %144, align 8, !tbaa !345, !llfi_index !2336
  %146 = getelementptr inbounds double, double* %5, i64 %143, !llfi_index !2337
  %147 = load double, double* %146, align 8, !tbaa !345, !llfi_index !2338
  %148 = getelementptr inbounds double, double* %4, i64 %143, !llfi_index !2339
  %149 = load double, double* %148, align 8, !tbaa !345, !llfi_index !2340
  %150 = getelementptr inbounds double, double* %6, i64 %142, !llfi_index !2341
  %151 = load double, double* %150, align 8, !tbaa !345, !llfi_index !2342
  %152 = getelementptr inbounds double, double* %5, i64 %142, !llfi_index !2343
  %153 = load double, double* %152, align 8, !tbaa !345, !llfi_index !2344
  %154 = getelementptr inbounds double, double* %4, i64 %142, !llfi_index !2345
  %155 = load double, double* %154, align 8, !tbaa !345, !llfi_index !2346
  %156 = getelementptr inbounds double, double* %6, i64 %141, !llfi_index !2347
  %157 = load double, double* %156, align 8, !tbaa !345, !llfi_index !2348
  %158 = getelementptr inbounds double, double* %5, i64 %141, !llfi_index !2349
  %159 = load double, double* %158, align 8, !tbaa !345, !llfi_index !2350
  %160 = getelementptr inbounds double, double* %4, i64 %141, !llfi_index !2351
  %161 = load double, double* %160, align 8, !tbaa !345, !llfi_index !2352
  %162 = getelementptr inbounds double, double* %6, i64 %140, !llfi_index !2353
  %163 = load double, double* %162, align 8, !tbaa !345, !llfi_index !2354
  %164 = getelementptr inbounds double, double* %5, i64 %140, !llfi_index !2355
  %165 = load double, double* %164, align 8, !tbaa !345, !llfi_index !2356
  %166 = getelementptr inbounds double, double* %4, i64 %140, !llfi_index !2357
  %167 = load double, double* %166, align 8, !tbaa !345, !llfi_index !2358
  %168 = getelementptr inbounds double, double* %6, i64 %139, !llfi_index !2359
  %169 = load double, double* %168, align 8, !tbaa !345, !llfi_index !2360
  %170 = getelementptr inbounds double, double* %5, i64 %139, !llfi_index !2361
  %171 = load double, double* %170, align 8, !tbaa !345, !llfi_index !2362
  %172 = getelementptr inbounds double, double* %4, i64 %139, !llfi_index !2363
  %173 = load double, double* %172, align 8, !tbaa !345, !llfi_index !2364
  %174 = getelementptr inbounds double, double* %6, i64 %138, !llfi_index !2365
  %175 = load double, double* %174, align 8, !tbaa !345, !llfi_index !2366
  %176 = getelementptr inbounds double, double* %5, i64 %138, !llfi_index !2367
  %177 = load double, double* %176, align 8, !tbaa !345, !llfi_index !2368
  %178 = getelementptr inbounds double, double* %4, i64 %138, !llfi_index !2369
  %179 = load double, double* %178, align 8, !tbaa !345, !llfi_index !2370
  %180 = getelementptr inbounds double, double* %6, i64 %137, !llfi_index !2371
  %181 = load double, double* %180, align 8, !tbaa !345, !llfi_index !2372
  %182 = getelementptr inbounds double, double* %5, i64 %137, !llfi_index !2373
  %183 = load double, double* %182, align 8, !tbaa !345, !llfi_index !2374
  %184 = getelementptr inbounds double, double* %4, i64 %137, !llfi_index !2375
  %185 = load double, double* %184, align 8, !tbaa !345, !llfi_index !2376
  %186 = getelementptr inbounds double, double* %6, i64 %133, !llfi_index !2377
  %187 = load double, double* %186, align 8, !tbaa !345, !llfi_index !2378
  %188 = getelementptr inbounds double, double* %5, i64 %133, !llfi_index !2379
  %189 = load double, double* %188, align 8, !tbaa !345, !llfi_index !2380
  %190 = getelementptr inbounds double, double* %4, i64 %133, !llfi_index !2381
  %191 = load double, double* %190, align 8, !tbaa !345, !llfi_index !2382
  %192 = getelementptr inbounds double, double* %3, i64 %143, !llfi_index !2383
  %193 = load double, double* %192, align 8, !tbaa !345, !llfi_index !2384
  %194 = getelementptr inbounds double, double* %3, i64 %142, !llfi_index !2385
  %195 = load double, double* %194, align 8, !tbaa !345, !llfi_index !2386
  %196 = getelementptr inbounds double, double* %3, i64 %141, !llfi_index !2387
  %197 = load double, double* %196, align 8, !tbaa !345, !llfi_index !2388
  %198 = getelementptr inbounds double, double* %3, i64 %140, !llfi_index !2389
  %199 = load double, double* %198, align 8, !tbaa !345, !llfi_index !2390
  %200 = getelementptr inbounds double, double* %3, i64 %139, !llfi_index !2391
  %201 = load double, double* %200, align 8, !tbaa !345, !llfi_index !2392
  %202 = getelementptr inbounds double, double* %3, i64 %138, !llfi_index !2393
  %203 = load double, double* %202, align 8, !tbaa !345, !llfi_index !2394
  %204 = getelementptr inbounds double, double* %3, i64 %137, !llfi_index !2395
  %205 = load double, double* %204, align 8, !tbaa !345, !llfi_index !2396
  %206 = getelementptr inbounds double, double* %3, i64 %133, !llfi_index !2397
  %207 = load double, double* %206, align 8, !tbaa !345, !llfi_index !2398
  %208 = getelementptr inbounds double, double* %2, i64 %143, !llfi_index !2399
  %209 = load double, double* %208, align 8, !tbaa !345, !llfi_index !2400
  %210 = getelementptr inbounds double, double* %2, i64 %142, !llfi_index !2401
  %211 = load double, double* %210, align 8, !tbaa !345, !llfi_index !2402
  %212 = getelementptr inbounds double, double* %2, i64 %141, !llfi_index !2403
  %213 = load double, double* %212, align 8, !tbaa !345, !llfi_index !2404
  %214 = getelementptr inbounds double, double* %2, i64 %140, !llfi_index !2405
  %215 = load double, double* %214, align 8, !tbaa !345, !llfi_index !2406
  %216 = getelementptr inbounds double, double* %2, i64 %139, !llfi_index !2407
  %217 = load double, double* %216, align 8, !tbaa !345, !llfi_index !2408
  %218 = getelementptr inbounds double, double* %2, i64 %138, !llfi_index !2409
  %219 = load double, double* %218, align 8, !tbaa !345, !llfi_index !2410
  %220 = getelementptr inbounds double, double* %2, i64 %137, !llfi_index !2411
  %221 = load double, double* %220, align 8, !tbaa !345, !llfi_index !2412
  %222 = getelementptr inbounds double, double* %2, i64 %133, !llfi_index !2413
  %223 = load double, double* %222, align 8, !tbaa !345, !llfi_index !2414
  %224 = getelementptr inbounds double, double* %1, i64 %143, !llfi_index !2415
  %225 = load double, double* %224, align 8, !tbaa !345, !llfi_index !2416
  %226 = getelementptr inbounds double, double* %1, i64 %142, !llfi_index !2417
  %227 = load double, double* %226, align 8, !tbaa !345, !llfi_index !2418
  %228 = getelementptr inbounds double, double* %1, i64 %141, !llfi_index !2419
  %229 = load double, double* %228, align 8, !tbaa !345, !llfi_index !2420
  %230 = getelementptr inbounds double, double* %1, i64 %140, !llfi_index !2421
  %231 = load double, double* %230, align 8, !tbaa !345, !llfi_index !2422
  %232 = getelementptr inbounds double, double* %1, i64 %139, !llfi_index !2423
  %233 = load double, double* %232, align 8, !tbaa !345, !llfi_index !2424
  %234 = getelementptr inbounds double, double* %1, i64 %138, !llfi_index !2425
  %235 = load double, double* %234, align 8, !tbaa !345, !llfi_index !2426
  %236 = getelementptr inbounds double, double* %1, i64 %137, !llfi_index !2427
  %237 = load double, double* %236, align 8, !tbaa !345, !llfi_index !2428
  %238 = getelementptr inbounds double, double* %1, i64 %133, !llfi_index !2429
  %239 = load double, double* %238, align 8, !tbaa !345, !llfi_index !2430
  %240 = fdiv double 1.000000e+00, %136, !llfi_index !2431
  %241 = insertelement <2 x double> poison, double %239, i32 0, !llfi_index !2432
  %242 = shufflevector <2 x double> %241, <2 x double> poison, <2 x i32> zeroinitializer, !llfi_index !2433
  %243 = insertelement <2 x double> poison, double %237, i32 0, !llfi_index !2434
  %244 = shufflevector <2 x double> %243, <2 x double> poison, <2 x i32> zeroinitializer, !llfi_index !2435
  %245 = insertelement <2 x double> poison, double %235, i32 0, !llfi_index !2436
  %246 = shufflevector <2 x double> %245, <2 x double> poison, <2 x i32> zeroinitializer, !llfi_index !2437
  %247 = insertelement <2 x double> poison, double %233, i32 0, !llfi_index !2438
  %248 = shufflevector <2 x double> %247, <2 x double> poison, <2 x i32> zeroinitializer, !llfi_index !2439
  %249 = insertelement <2 x double> poison, double %231, i32 0, !llfi_index !2440
  %250 = shufflevector <2 x double> %249, <2 x double> poison, <2 x i32> zeroinitializer, !llfi_index !2441
  %251 = insertelement <2 x double> poison, double %229, i32 0, !llfi_index !2442
  %252 = shufflevector <2 x double> %251, <2 x double> poison, <2 x i32> zeroinitializer, !llfi_index !2443
  %253 = insertelement <2 x double> poison, double %227, i32 0, !llfi_index !2444
  %254 = shufflevector <2 x double> %253, <2 x double> poison, <2 x i32> zeroinitializer, !llfi_index !2445
  %255 = insertelement <2 x double> poison, double %225, i32 0, !llfi_index !2446
  %256 = shufflevector <2 x double> %255, <2 x double> poison, <2 x i32> zeroinitializer, !llfi_index !2447
  %257 = insertelement <2 x double> poison, double %223, i32 0, !llfi_index !2448
  %258 = shufflevector <2 x double> %257, <2 x double> poison, <2 x i32> zeroinitializer, !llfi_index !2449
  %259 = insertelement <2 x double> poison, double %221, i32 0, !llfi_index !2450
  %260 = shufflevector <2 x double> %259, <2 x double> poison, <2 x i32> zeroinitializer, !llfi_index !2451
  %261 = insertelement <2 x double> poison, double %219, i32 0, !llfi_index !2452
  %262 = shufflevector <2 x double> %261, <2 x double> poison, <2 x i32> zeroinitializer, !llfi_index !2453
  %263 = insertelement <2 x double> poison, double %217, i32 0, !llfi_index !2454
  %264 = shufflevector <2 x double> %263, <2 x double> poison, <2 x i32> zeroinitializer, !llfi_index !2455
  %265 = insertelement <2 x double> poison, double %215, i32 0, !llfi_index !2456
  %266 = shufflevector <2 x double> %265, <2 x double> poison, <2 x i32> zeroinitializer, !llfi_index !2457
  %267 = insertelement <2 x double> poison, double %213, i32 0, !llfi_index !2458
  %268 = shufflevector <2 x double> %267, <2 x double> poison, <2 x i32> zeroinitializer, !llfi_index !2459
  %269 = insertelement <2 x double> poison, double %211, i32 0, !llfi_index !2460
  %270 = shufflevector <2 x double> %269, <2 x double> poison, <2 x i32> zeroinitializer, !llfi_index !2461
  %271 = insertelement <2 x double> poison, double %209, i32 0, !llfi_index !2462
  %272 = shufflevector <2 x double> %271, <2 x double> poison, <2 x i32> zeroinitializer, !llfi_index !2463
  %273 = insertelement <2 x double> poison, double %207, i32 0, !llfi_index !2464
  %274 = shufflevector <2 x double> %273, <2 x double> poison, <2 x i32> zeroinitializer, !llfi_index !2465
  %275 = insertelement <2 x double> poison, double %205, i32 0, !llfi_index !2466
  %276 = shufflevector <2 x double> %275, <2 x double> poison, <2 x i32> zeroinitializer, !llfi_index !2467
  %277 = insertelement <2 x double> poison, double %203, i32 0, !llfi_index !2468
  %278 = shufflevector <2 x double> %277, <2 x double> poison, <2 x i32> zeroinitializer, !llfi_index !2469
  %279 = insertelement <2 x double> poison, double %201, i32 0, !llfi_index !2470
  %280 = shufflevector <2 x double> %279, <2 x double> poison, <2 x i32> zeroinitializer, !llfi_index !2471
  %281 = insertelement <2 x double> poison, double %199, i32 0, !llfi_index !2472
  %282 = shufflevector <2 x double> %281, <2 x double> poison, <2 x i32> zeroinitializer, !llfi_index !2473
  %283 = insertelement <2 x double> poison, double %197, i32 0, !llfi_index !2474
  %284 = shufflevector <2 x double> %283, <2 x double> poison, <2 x i32> zeroinitializer, !llfi_index !2475
  %285 = insertelement <2 x double> poison, double %195, i32 0, !llfi_index !2476
  %286 = shufflevector <2 x double> %285, <2 x double> poison, <2 x i32> zeroinitializer, !llfi_index !2477
  %287 = insertelement <2 x double> poison, double %193, i32 0, !llfi_index !2478
  %288 = shufflevector <2 x double> %287, <2 x double> poison, <2 x i32> zeroinitializer, !llfi_index !2479
  %289 = insertelement <2 x double> poison, double %191, i32 0, !llfi_index !2480
  %290 = shufflevector <2 x double> %289, <2 x double> poison, <2 x i32> zeroinitializer, !llfi_index !2481
  %291 = insertelement <2 x double> poison, double %189, i32 0, !llfi_index !2482
  %292 = shufflevector <2 x double> %291, <2 x double> poison, <2 x i32> zeroinitializer, !llfi_index !2483
  %293 = insertelement <2 x double> poison, double %187, i32 0, !llfi_index !2484
  %294 = shufflevector <2 x double> %293, <2 x double> poison, <2 x i32> zeroinitializer, !llfi_index !2485
  %295 = insertelement <2 x double> poison, double %240, i32 0, !llfi_index !2486
  %296 = shufflevector <2 x double> %295, <2 x double> poison, <2 x i32> zeroinitializer, !llfi_index !2487
  %297 = insertelement <2 x double> poison, double %185, i32 0, !llfi_index !2488
  %298 = shufflevector <2 x double> %297, <2 x double> poison, <2 x i32> zeroinitializer, !llfi_index !2489
  %299 = insertelement <2 x double> poison, double %183, i32 0, !llfi_index !2490
  %300 = shufflevector <2 x double> %299, <2 x double> poison, <2 x i32> zeroinitializer, !llfi_index !2491
  %301 = insertelement <2 x double> poison, double %181, i32 0, !llfi_index !2492
  %302 = shufflevector <2 x double> %301, <2 x double> poison, <2 x i32> zeroinitializer, !llfi_index !2493
  %303 = insertelement <2 x double> poison, double %179, i32 0, !llfi_index !2494
  %304 = shufflevector <2 x double> %303, <2 x double> poison, <2 x i32> zeroinitializer, !llfi_index !2495
  %305 = insertelement <2 x double> poison, double %177, i32 0, !llfi_index !2496
  %306 = shufflevector <2 x double> %305, <2 x double> poison, <2 x i32> zeroinitializer, !llfi_index !2497
  %307 = insertelement <2 x double> poison, double %175, i32 0, !llfi_index !2498
  %308 = shufflevector <2 x double> %307, <2 x double> poison, <2 x i32> zeroinitializer, !llfi_index !2499
  %309 = insertelement <2 x double> poison, double %173, i32 0, !llfi_index !2500
  %310 = shufflevector <2 x double> %309, <2 x double> poison, <2 x i32> zeroinitializer, !llfi_index !2501
  %311 = insertelement <2 x double> poison, double %171, i32 0, !llfi_index !2502
  %312 = shufflevector <2 x double> %311, <2 x double> poison, <2 x i32> zeroinitializer, !llfi_index !2503
  %313 = insertelement <2 x double> poison, double %169, i32 0, !llfi_index !2504
  %314 = shufflevector <2 x double> %313, <2 x double> poison, <2 x i32> zeroinitializer, !llfi_index !2505
  %315 = insertelement <2 x double> poison, double %167, i32 0, !llfi_index !2506
  %316 = shufflevector <2 x double> %315, <2 x double> poison, <2 x i32> zeroinitializer, !llfi_index !2507
  %317 = insertelement <2 x double> poison, double %165, i32 0, !llfi_index !2508
  %318 = shufflevector <2 x double> %317, <2 x double> poison, <2 x i32> zeroinitializer, !llfi_index !2509
  %319 = insertelement <2 x double> poison, double %163, i32 0, !llfi_index !2510
  %320 = shufflevector <2 x double> %319, <2 x double> poison, <2 x i32> zeroinitializer, !llfi_index !2511
  %321 = insertelement <2 x double> poison, double %161, i32 0, !llfi_index !2512
  %322 = shufflevector <2 x double> %321, <2 x double> poison, <2 x i32> zeroinitializer, !llfi_index !2513
  %323 = insertelement <2 x double> poison, double %159, i32 0, !llfi_index !2514
  %324 = shufflevector <2 x double> %323, <2 x double> poison, <2 x i32> zeroinitializer, !llfi_index !2515
  %325 = insertelement <2 x double> poison, double %157, i32 0, !llfi_index !2516
  %326 = shufflevector <2 x double> %325, <2 x double> poison, <2 x i32> zeroinitializer, !llfi_index !2517
  %327 = insertelement <2 x double> poison, double %155, i32 0, !llfi_index !2518
  %328 = shufflevector <2 x double> %327, <2 x double> poison, <2 x i32> zeroinitializer, !llfi_index !2519
  %329 = insertelement <2 x double> poison, double %153, i32 0, !llfi_index !2520
  %330 = shufflevector <2 x double> %329, <2 x double> poison, <2 x i32> zeroinitializer, !llfi_index !2521
  %331 = insertelement <2 x double> poison, double %151, i32 0, !llfi_index !2522
  %332 = shufflevector <2 x double> %331, <2 x double> poison, <2 x i32> zeroinitializer, !llfi_index !2523
  %333 = insertelement <2 x double> poison, double %149, i32 0, !llfi_index !2524
  %334 = shufflevector <2 x double> %333, <2 x double> poison, <2 x i32> zeroinitializer, !llfi_index !2525
  %335 = insertelement <2 x double> poison, double %147, i32 0, !llfi_index !2526
  %336 = shufflevector <2 x double> %335, <2 x double> poison, <2 x i32> zeroinitializer, !llfi_index !2527
  %337 = insertelement <2 x double> poison, double %145, i32 0, !llfi_index !2528
  %338 = shufflevector <2 x double> %337, <2 x double> poison, <2 x i32> zeroinitializer, !llfi_index !2529
  br label %339, !llfi_index !2530

339:                                              ; preds = %339, %131
  %340 = phi i64 [ 0, %131 ], [ %469, %339 ], !llfi_index !2531
  %341 = getelementptr inbounds [4 x [8 x double]], [4 x [8 x double]]* %12, i64 0, i64 %340, i64 0, !llfi_index !2532
  %342 = bitcast double* %341 to <16 x double>*, !llfi_index !2533
  %343 = load <16 x double>, <16 x double>* %342, align 16, !tbaa !345, !llfi_index !2534
  %344 = shufflevector <16 x double> %343, <16 x double> poison, <2 x i32> <i32 0, i32 8>, !llfi_index !2535
  %345 = shufflevector <16 x double> %343, <16 x double> poison, <2 x i32> <i32 1, i32 9>, !llfi_index !2536
  %346 = shufflevector <16 x double> %343, <16 x double> poison, <2 x i32> <i32 2, i32 10>, !llfi_index !2537
  %347 = shufflevector <16 x double> %343, <16 x double> poison, <2 x i32> <i32 3, i32 11>, !llfi_index !2538
  %348 = shufflevector <16 x double> %343, <16 x double> poison, <2 x i32> <i32 4, i32 12>, !llfi_index !2539
  %349 = shufflevector <16 x double> %343, <16 x double> poison, <2 x i32> <i32 5, i32 13>, !llfi_index !2540
  %350 = shufflevector <16 x double> %343, <16 x double> poison, <2 x i32> <i32 6, i32 14>, !llfi_index !2541
  %351 = shufflevector <16 x double> %343, <16 x double> poison, <2 x i32> <i32 7, i32 15>, !llfi_index !2542
  %352 = fmul <2 x double> %242, %344, !llfi_index !2543
  %353 = fmul <2 x double> %244, %345, !llfi_index !2544
  %354 = fadd <2 x double> %352, %353, !llfi_index !2545
  %355 = fmul <2 x double> %246, %346, !llfi_index !2546
  %356 = fadd <2 x double> %355, %354, !llfi_index !2547
  %357 = fmul <2 x double> %248, %347, !llfi_index !2548
  %358 = fadd <2 x double> %357, %356, !llfi_index !2549
  %359 = fmul <2 x double> %250, %348, !llfi_index !2550
  %360 = fadd <2 x double> %359, %358, !llfi_index !2551
  %361 = fmul <2 x double> %252, %349, !llfi_index !2552
  %362 = fadd <2 x double> %361, %360, !llfi_index !2553
  %363 = fmul <2 x double> %254, %350, !llfi_index !2554
  %364 = fadd <2 x double> %363, %362, !llfi_index !2555
  %365 = fmul <2 x double> %256, %351, !llfi_index !2556
  %366 = fadd <2 x double> %365, %364, !llfi_index !2557
  %367 = fmul <2 x double> %258, %344, !llfi_index !2558
  %368 = fmul <2 x double> %260, %345, !llfi_index !2559
  %369 = fadd <2 x double> %367, %368, !llfi_index !2560
  %370 = fmul <2 x double> %262, %346, !llfi_index !2561
  %371 = fadd <2 x double> %370, %369, !llfi_index !2562
  %372 = fmul <2 x double> %264, %347, !llfi_index !2563
  %373 = fadd <2 x double> %372, %371, !llfi_index !2564
  %374 = fmul <2 x double> %266, %348, !llfi_index !2565
  %375 = fadd <2 x double> %374, %373, !llfi_index !2566
  %376 = fmul <2 x double> %268, %349, !llfi_index !2567
  %377 = fadd <2 x double> %376, %375, !llfi_index !2568
  %378 = fmul <2 x double> %270, %350, !llfi_index !2569
  %379 = fadd <2 x double> %378, %377, !llfi_index !2570
  %380 = fmul <2 x double> %272, %351, !llfi_index !2571
  %381 = fadd <2 x double> %380, %379, !llfi_index !2572
  %382 = fmul <2 x double> %274, %344, !llfi_index !2573
  %383 = fmul <2 x double> %276, %345, !llfi_index !2574
  %384 = fadd <2 x double> %382, %383, !llfi_index !2575
  %385 = fmul <2 x double> %278, %346, !llfi_index !2576
  %386 = fadd <2 x double> %385, %384, !llfi_index !2577
  %387 = fmul <2 x double> %280, %347, !llfi_index !2578
  %388 = fadd <2 x double> %387, %386, !llfi_index !2579
  %389 = fmul <2 x double> %282, %348, !llfi_index !2580
  %390 = fadd <2 x double> %389, %388, !llfi_index !2581
  %391 = fmul <2 x double> %284, %349, !llfi_index !2582
  %392 = fadd <2 x double> %391, %390, !llfi_index !2583
  %393 = fmul <2 x double> %286, %350, !llfi_index !2584
  %394 = fadd <2 x double> %393, %392, !llfi_index !2585
  %395 = fmul <2 x double> %288, %351, !llfi_index !2586
  %396 = fadd <2 x double> %395, %394, !llfi_index !2587
  %397 = fmul <2 x double> %290, %366, !llfi_index !2588
  %398 = fmul <2 x double> %292, %381, !llfi_index !2589
  %399 = fadd <2 x double> %397, %398, !llfi_index !2590
  %400 = fmul <2 x double> %294, %396, !llfi_index !2591
  %401 = fadd <2 x double> %400, %399, !llfi_index !2592
  %402 = fmul <2 x double> %296, %401, !llfi_index !2593
  %403 = fsub <2 x double> %344, %402, !llfi_index !2594
  %404 = getelementptr inbounds [4 x double], [4 x double]* %13, i64 0, i64 %340, !llfi_index !2595
  %405 = bitcast double* %404 to <2 x double>*, !llfi_index !2596
  store <2 x double> %403, <2 x double>* %405, align 16, !tbaa !345, !llfi_index !2597
  %406 = fmul <2 x double> %298, %366, !llfi_index !2598
  %407 = fmul <2 x double> %300, %381, !llfi_index !2599
  %408 = fadd <2 x double> %406, %407, !llfi_index !2600
  %409 = fmul <2 x double> %302, %396, !llfi_index !2601
  %410 = fadd <2 x double> %409, %408, !llfi_index !2602
  %411 = fmul <2 x double> %296, %410, !llfi_index !2603
  %412 = fsub <2 x double> %345, %411, !llfi_index !2604
  %413 = getelementptr inbounds [4 x double], [4 x double]* %14, i64 0, i64 %340, !llfi_index !2605
  %414 = bitcast double* %413 to <2 x double>*, !llfi_index !2606
  store <2 x double> %412, <2 x double>* %414, align 16, !tbaa !345, !llfi_index !2607
  %415 = fmul <2 x double> %304, %366, !llfi_index !2608
  %416 = fmul <2 x double> %306, %381, !llfi_index !2609
  %417 = fadd <2 x double> %415, %416, !llfi_index !2610
  %418 = fmul <2 x double> %308, %396, !llfi_index !2611
  %419 = fadd <2 x double> %418, %417, !llfi_index !2612
  %420 = fmul <2 x double> %296, %419, !llfi_index !2613
  %421 = fsub <2 x double> %346, %420, !llfi_index !2614
  %422 = getelementptr inbounds [4 x double], [4 x double]* %15, i64 0, i64 %340, !llfi_index !2615
  %423 = bitcast double* %422 to <2 x double>*, !llfi_index !2616
  store <2 x double> %421, <2 x double>* %423, align 16, !tbaa !345, !llfi_index !2617
  %424 = fmul <2 x double> %310, %366, !llfi_index !2618
  %425 = fmul <2 x double> %312, %381, !llfi_index !2619
  %426 = fadd <2 x double> %424, %425, !llfi_index !2620
  %427 = fmul <2 x double> %314, %396, !llfi_index !2621
  %428 = fadd <2 x double> %427, %426, !llfi_index !2622
  %429 = fmul <2 x double> %296, %428, !llfi_index !2623
  %430 = fsub <2 x double> %347, %429, !llfi_index !2624
  %431 = getelementptr inbounds [4 x double], [4 x double]* %16, i64 0, i64 %340, !llfi_index !2625
  %432 = bitcast double* %431 to <2 x double>*, !llfi_index !2626
  store <2 x double> %430, <2 x double>* %432, align 16, !tbaa !345, !llfi_index !2627
  %433 = fmul <2 x double> %316, %366, !llfi_index !2628
  %434 = fmul <2 x double> %318, %381, !llfi_index !2629
  %435 = fadd <2 x double> %433, %434, !llfi_index !2630
  %436 = fmul <2 x double> %320, %396, !llfi_index !2631
  %437 = fadd <2 x double> %436, %435, !llfi_index !2632
  %438 = fmul <2 x double> %296, %437, !llfi_index !2633
  %439 = fsub <2 x double> %348, %438, !llfi_index !2634
  %440 = getelementptr inbounds [4 x double], [4 x double]* %17, i64 0, i64 %340, !llfi_index !2635
  %441 = bitcast double* %440 to <2 x double>*, !llfi_index !2636
  store <2 x double> %439, <2 x double>* %441, align 16, !tbaa !345, !llfi_index !2637
  %442 = fmul <2 x double> %322, %366, !llfi_index !2638
  %443 = fmul <2 x double> %324, %381, !llfi_index !2639
  %444 = fadd <2 x double> %442, %443, !llfi_index !2640
  %445 = fmul <2 x double> %326, %396, !llfi_index !2641
  %446 = fadd <2 x double> %445, %444, !llfi_index !2642
  %447 = fmul <2 x double> %296, %446, !llfi_index !2643
  %448 = fsub <2 x double> %349, %447, !llfi_index !2644
  %449 = getelementptr inbounds [4 x double], [4 x double]* %18, i64 0, i64 %340, !llfi_index !2645
  %450 = bitcast double* %449 to <2 x double>*, !llfi_index !2646
  store <2 x double> %448, <2 x double>* %450, align 16, !tbaa !345, !llfi_index !2647
  %451 = fmul <2 x double> %328, %366, !llfi_index !2648
  %452 = fmul <2 x double> %330, %381, !llfi_index !2649
  %453 = fadd <2 x double> %451, %452, !llfi_index !2650
  %454 = fmul <2 x double> %332, %396, !llfi_index !2651
  %455 = fadd <2 x double> %454, %453, !llfi_index !2652
  %456 = fmul <2 x double> %296, %455, !llfi_index !2653
  %457 = fsub <2 x double> %350, %456, !llfi_index !2654
  %458 = getelementptr inbounds [4 x double], [4 x double]* %19, i64 0, i64 %340, !llfi_index !2655
  %459 = bitcast double* %458 to <2 x double>*, !llfi_index !2656
  store <2 x double> %457, <2 x double>* %459, align 16, !tbaa !345, !llfi_index !2657
  %460 = fmul <2 x double> %334, %366, !llfi_index !2658
  %461 = fmul <2 x double> %336, %381, !llfi_index !2659
  %462 = fadd <2 x double> %460, %461, !llfi_index !2660
  %463 = fmul <2 x double> %338, %396, !llfi_index !2661
  %464 = fadd <2 x double> %463, %462, !llfi_index !2662
  %465 = fmul <2 x double> %296, %464, !llfi_index !2663
  %466 = fsub <2 x double> %351, %465, !llfi_index !2664
  %467 = getelementptr inbounds [4 x double], [4 x double]* %20, i64 0, i64 %340, !llfi_index !2665
  %468 = bitcast double* %467 to <2 x double>*, !llfi_index !2666
  store <2 x double> %466, <2 x double>* %468, align 16, !tbaa !345, !llfi_index !2667
  %469 = add nuw nsw i64 %340, 2, !llfi_index !2668
  %470 = icmp eq i64 %469, 4, !llfi_index !2669
  br i1 %470, label %471, label %339, !llvm.loop !2670, !llfi_index !2672

471:                                              ; preds = %339
  %472 = getelementptr inbounds i32, i32* %134, i64 %133, !llfi_index !2673
  %473 = load double*, double** getelementptr inbounds (%struct.Mesh, %struct.Mesh* @mesh, i64 0, i32 45, i32 0, i32 0, i32 0, i32 0), align 8, !tbaa !9, !llfi_index !2674
  %474 = getelementptr inbounds double, double* %473, i64 %132, !llfi_index !2675
  %475 = load double, double* %474, align 8, !tbaa !345, !llfi_index !2676
  %476 = load double*, double** getelementptr inbounds (%struct.Mesh, %struct.Mesh* @mesh, i64 0, i32 46, i32 0, i32 0, i32 0, i32 0), align 8, !tbaa !9, !llfi_index !2677
  %477 = getelementptr inbounds double, double* %476, i64 %132, !llfi_index !2678
  %478 = load double, double* %477, align 8, !tbaa !345, !llfi_index !2679
  %479 = tail call double @cbrt(double %136) #31, !llfi_index !2680
  %480 = load i32, i32* %472, align 4, !tbaa !404, !llfi_index !2681
  %481 = getelementptr inbounds i32, i32* %472, i64 1, !llfi_index !2682
  %482 = load i32, i32* %481, align 4, !tbaa !404, !llfi_index !2683
  %483 = getelementptr inbounds i32, i32* %472, i64 2, !llfi_index !2684
  %484 = load i32, i32* %483, align 4, !tbaa !404, !llfi_index !2685
  %485 = getelementptr inbounds i32, i32* %472, i64 3, !llfi_index !2686
  %486 = load i32, i32* %485, align 4, !tbaa !404, !llfi_index !2687
  %487 = getelementptr inbounds i32, i32* %472, i64 4, !llfi_index !2688
  %488 = load i32, i32* %487, align 4, !tbaa !404, !llfi_index !2689
  %489 = getelementptr inbounds i32, i32* %472, i64 5, !llfi_index !2690
  %490 = load i32, i32* %489, align 4, !tbaa !404, !llfi_index !2691
  %491 = getelementptr inbounds i32, i32* %472, i64 6, !llfi_index !2692
  %492 = load i32, i32* %491, align 4, !tbaa !404, !llfi_index !2693
  %493 = getelementptr inbounds i32, i32* %472, i64 7, !llfi_index !2694
  %494 = load i32, i32* %493, align 4, !tbaa !404, !llfi_index !2695
  %495 = sext i32 %480 to i64, !llfi_index !2696
  %496 = load double*, double** getelementptr inbounds (%struct.Mesh, %struct.Mesh* @mesh, i64 0, i32 3, i32 0, i32 0, i32 0, i32 0), align 8, !tbaa !9, !llfi_index !2697
  %497 = getelementptr inbounds double, double* %496, i64 %495, !llfi_index !2698
  %498 = load double, double* %497, align 8, !tbaa !345, !llfi_index !2699
  store double %498, double* %71, align 16, !tbaa !345, !llfi_index !2700
  %499 = sext i32 %482 to i64, !llfi_index !2701
  %500 = getelementptr inbounds double, double* %496, i64 %499, !llfi_index !2702
  %501 = load double, double* %500, align 8, !tbaa !345, !llfi_index !2703
  store double %501, double* %72, align 8, !tbaa !345, !llfi_index !2704
  %502 = sext i32 %484 to i64, !llfi_index !2705
  %503 = getelementptr inbounds double, double* %496, i64 %502, !llfi_index !2706
  %504 = load double, double* %503, align 8, !tbaa !345, !llfi_index !2707
  store double %504, double* %73, align 16, !tbaa !345, !llfi_index !2708
  %505 = sext i32 %486 to i64, !llfi_index !2709
  %506 = getelementptr inbounds double, double* %496, i64 %505, !llfi_index !2710
  %507 = load double, double* %506, align 8, !tbaa !345, !llfi_index !2711
  store double %507, double* %74, align 8, !tbaa !345, !llfi_index !2712
  %508 = sext i32 %488 to i64, !llfi_index !2713
  %509 = getelementptr inbounds double, double* %496, i64 %508, !llfi_index !2714
  %510 = load double, double* %509, align 8, !tbaa !345, !llfi_index !2715
  store double %510, double* %75, align 16, !tbaa !345, !llfi_index !2716
  %511 = sext i32 %490 to i64, !llfi_index !2717
  %512 = getelementptr inbounds double, double* %496, i64 %511, !llfi_index !2718
  %513 = load double, double* %512, align 8, !tbaa !345, !llfi_index !2719
  store double %513, double* %76, align 8, !tbaa !345, !llfi_index !2720
  %514 = sext i32 %492 to i64, !llfi_index !2721
  %515 = getelementptr inbounds double, double* %496, i64 %514, !llfi_index !2722
  %516 = load double, double* %515, align 8, !tbaa !345, !llfi_index !2723
  store double %516, double* %77, align 16, !tbaa !345, !llfi_index !2724
  %517 = sext i32 %494 to i64, !llfi_index !2725
  %518 = getelementptr inbounds double, double* %496, i64 %517, !llfi_index !2726
  %519 = load double, double* %518, align 8, !tbaa !345, !llfi_index !2727
  store double %519, double* %78, align 8, !tbaa !345, !llfi_index !2728
  %520 = load double*, double** getelementptr inbounds (%struct.Mesh, %struct.Mesh* @mesh, i64 0, i32 4, i32 0, i32 0, i32 0, i32 0), align 8, !tbaa !9, !llfi_index !2729
  %521 = getelementptr inbounds double, double* %520, i64 %495, !llfi_index !2730
  %522 = load double, double* %521, align 8, !tbaa !345, !llfi_index !2731
  store double %522, double* %79, align 16, !tbaa !345, !llfi_index !2732
  %523 = getelementptr inbounds double, double* %520, i64 %499, !llfi_index !2733
  %524 = load double, double* %523, align 8, !tbaa !345, !llfi_index !2734
  store double %524, double* %80, align 8, !tbaa !345, !llfi_index !2735
  %525 = getelementptr inbounds double, double* %520, i64 %502, !llfi_index !2736
  %526 = load double, double* %525, align 8, !tbaa !345, !llfi_index !2737
  store double %526, double* %81, align 16, !tbaa !345, !llfi_index !2738
  %527 = getelementptr inbounds double, double* %520, i64 %505, !llfi_index !2739
  %528 = load double, double* %527, align 8, !tbaa !345, !llfi_index !2740
  store double %528, double* %82, align 8, !tbaa !345, !llfi_index !2741
  %529 = getelementptr inbounds double, double* %520, i64 %508, !llfi_index !2742
  %530 = load double, double* %529, align 8, !tbaa !345, !llfi_index !2743
  store double %530, double* %83, align 16, !tbaa !345, !llfi_index !2744
  %531 = getelementptr inbounds double, double* %520, i64 %511, !llfi_index !2745
  %532 = load double, double* %531, align 8, !tbaa !345, !llfi_index !2746
  store double %532, double* %84, align 8, !tbaa !345, !llfi_index !2747
  %533 = getelementptr inbounds double, double* %520, i64 %514, !llfi_index !2748
  %534 = load double, double* %533, align 8, !tbaa !345, !llfi_index !2749
  store double %534, double* %85, align 16, !tbaa !345, !llfi_index !2750
  %535 = getelementptr inbounds double, double* %520, i64 %517, !llfi_index !2751
  %536 = load double, double* %535, align 8, !tbaa !345, !llfi_index !2752
  store double %536, double* %86, align 8, !tbaa !345, !llfi_index !2753
  %537 = load double*, double** getelementptr inbounds (%struct.Mesh, %struct.Mesh* @mesh, i64 0, i32 5, i32 0, i32 0, i32 0, i32 0), align 8, !tbaa !9, !llfi_index !2754
  %538 = getelementptr inbounds double, double* %537, i64 %495, !llfi_index !2755
  %539 = load double, double* %538, align 8, !tbaa !345, !llfi_index !2756
  store double %539, double* %87, align 16, !tbaa !345, !llfi_index !2757
  %540 = getelementptr inbounds double, double* %537, i64 %499, !llfi_index !2758
  %541 = load double, double* %540, align 8, !tbaa !345, !llfi_index !2759
  store double %541, double* %88, align 8, !tbaa !345, !llfi_index !2760
  %542 = getelementptr inbounds double, double* %537, i64 %502, !llfi_index !2761
  %543 = load double, double* %542, align 8, !tbaa !345, !llfi_index !2762
  store double %543, double* %89, align 16, !tbaa !345, !llfi_index !2763
  %544 = getelementptr inbounds double, double* %537, i64 %505, !llfi_index !2764
  %545 = load double, double* %544, align 8, !tbaa !345, !llfi_index !2765
  store double %545, double* %90, align 8, !tbaa !345, !llfi_index !2766
  %546 = getelementptr inbounds double, double* %537, i64 %508, !llfi_index !2767
  %547 = load double, double* %546, align 8, !tbaa !345, !llfi_index !2768
  store double %547, double* %91, align 16, !tbaa !345, !llfi_index !2769
  %548 = getelementptr inbounds double, double* %537, i64 %511, !llfi_index !2770
  %549 = load double, double* %548, align 8, !tbaa !345, !llfi_index !2771
  store double %549, double* %92, align 8, !tbaa !345, !llfi_index !2772
  %550 = getelementptr inbounds double, double* %537, i64 %514, !llfi_index !2773
  %551 = load double, double* %550, align 8, !tbaa !345, !llfi_index !2774
  store double %551, double* %93, align 16, !tbaa !345, !llfi_index !2775
  %552 = getelementptr inbounds double, double* %537, i64 %517, !llfi_index !2776
  %553 = load double, double* %552, align 8, !tbaa !345, !llfi_index !2777
  store double %553, double* %94, align 8, !tbaa !345, !llfi_index !2778
  %554 = fmul double %95, %475, !llfi_index !2779
  %555 = fmul double %554, %478, !llfi_index !2780
  %556 = fdiv double %555, %479, !llfi_index !2781
  call void @_Z24CalcElemFBHourglassForcePdS_S_S_S_S_S_S_S_S_S_dS_S_S_(double* nonnull %71, double* nonnull %79, double* nonnull %87, double* nonnull %96, double* nonnull %97, double* nonnull %98, double* nonnull %99, double* nonnull %100, double* nonnull %101, double* nonnull %102, double* nonnull %103, double %556, double* nonnull %104, double* nonnull %105, double* nonnull %106), !llfi_index !2782
  %557 = load double, double* %104, align 16, !tbaa !345, !llfi_index !2783
  %558 = load double*, double** getelementptr inbounds (%struct.Mesh, %struct.Mesh* @mesh, i64 0, i32 9, i32 0, i32 0, i32 0, i32 0), align 8, !tbaa !9, !llfi_index !2784
  %559 = getelementptr inbounds double, double* %558, i64 %495, !llfi_index !2785
  %560 = load double, double* %559, align 8, !tbaa !345, !llfi_index !2786
  %561 = fadd double %557, %560, !llfi_index !2787
  store double %561, double* %559, align 8, !tbaa !345, !llfi_index !2788
  %562 = load double, double* %105, align 16, !tbaa !345, !llfi_index !2789
  %563 = load double*, double** getelementptr inbounds (%struct.Mesh, %struct.Mesh* @mesh, i64 0, i32 10, i32 0, i32 0, i32 0, i32 0), align 8, !tbaa !9, !llfi_index !2790
  %564 = getelementptr inbounds double, double* %563, i64 %495, !llfi_index !2791
  %565 = load double, double* %564, align 8, !tbaa !345, !llfi_index !2792
  %566 = fadd double %562, %565, !llfi_index !2793
  store double %566, double* %564, align 8, !tbaa !345, !llfi_index !2794
  %567 = load double, double* %106, align 16, !tbaa !345, !llfi_index !2795
  %568 = load double*, double** getelementptr inbounds (%struct.Mesh, %struct.Mesh* @mesh, i64 0, i32 11, i32 0, i32 0, i32 0, i32 0), align 8, !tbaa !9, !llfi_index !2796
  %569 = getelementptr inbounds double, double* %568, i64 %495, !llfi_index !2797
  %570 = load double, double* %569, align 8, !tbaa !345, !llfi_index !2798
  %571 = fadd double %567, %570, !llfi_index !2799
  store double %571, double* %569, align 8, !tbaa !345, !llfi_index !2800
  %572 = load double, double* %107, align 8, !tbaa !345, !llfi_index !2801
  %573 = getelementptr inbounds double, double* %558, i64 %499, !llfi_index !2802
  %574 = load double, double* %573, align 8, !tbaa !345, !llfi_index !2803
  %575 = fadd double %572, %574, !llfi_index !2804
  store double %575, double* %573, align 8, !tbaa !345, !llfi_index !2805
  %576 = load double, double* %108, align 8, !tbaa !345, !llfi_index !2806
  %577 = getelementptr inbounds double, double* %563, i64 %499, !llfi_index !2807
  %578 = load double, double* %577, align 8, !tbaa !345, !llfi_index !2808
  %579 = fadd double %576, %578, !llfi_index !2809
  store double %579, double* %577, align 8, !tbaa !345, !llfi_index !2810
  %580 = load double, double* %109, align 8, !tbaa !345, !llfi_index !2811
  %581 = getelementptr inbounds double, double* %568, i64 %499, !llfi_index !2812
  %582 = load double, double* %581, align 8, !tbaa !345, !llfi_index !2813
  %583 = fadd double %580, %582, !llfi_index !2814
  store double %583, double* %581, align 8, !tbaa !345, !llfi_index !2815
  %584 = load double, double* %110, align 16, !tbaa !345, !llfi_index !2816
  %585 = getelementptr inbounds double, double* %558, i64 %502, !llfi_index !2817
  %586 = load double, double* %585, align 8, !tbaa !345, !llfi_index !2818
  %587 = fadd double %584, %586, !llfi_index !2819
  store double %587, double* %585, align 8, !tbaa !345, !llfi_index !2820
  %588 = load double, double* %111, align 16, !tbaa !345, !llfi_index !2821
  %589 = getelementptr inbounds double, double* %563, i64 %502, !llfi_index !2822
  %590 = load double, double* %589, align 8, !tbaa !345, !llfi_index !2823
  %591 = fadd double %588, %590, !llfi_index !2824
  store double %591, double* %589, align 8, !tbaa !345, !llfi_index !2825
  %592 = load double, double* %112, align 16, !tbaa !345, !llfi_index !2826
  %593 = getelementptr inbounds double, double* %568, i64 %502, !llfi_index !2827
  %594 = load double, double* %593, align 8, !tbaa !345, !llfi_index !2828
  %595 = fadd double %592, %594, !llfi_index !2829
  store double %595, double* %593, align 8, !tbaa !345, !llfi_index !2830
  %596 = load double, double* %113, align 8, !tbaa !345, !llfi_index !2831
  %597 = getelementptr inbounds double, double* %558, i64 %505, !llfi_index !2832
  %598 = load double, double* %597, align 8, !tbaa !345, !llfi_index !2833
  %599 = fadd double %596, %598, !llfi_index !2834
  store double %599, double* %597, align 8, !tbaa !345, !llfi_index !2835
  %600 = load double, double* %114, align 8, !tbaa !345, !llfi_index !2836
  %601 = getelementptr inbounds double, double* %563, i64 %505, !llfi_index !2837
  %602 = load double, double* %601, align 8, !tbaa !345, !llfi_index !2838
  %603 = fadd double %600, %602, !llfi_index !2839
  store double %603, double* %601, align 8, !tbaa !345, !llfi_index !2840
  %604 = load double, double* %115, align 8, !tbaa !345, !llfi_index !2841
  %605 = getelementptr inbounds double, double* %568, i64 %505, !llfi_index !2842
  %606 = load double, double* %605, align 8, !tbaa !345, !llfi_index !2843
  %607 = fadd double %604, %606, !llfi_index !2844
  store double %607, double* %605, align 8, !tbaa !345, !llfi_index !2845
  %608 = load double, double* %116, align 16, !tbaa !345, !llfi_index !2846
  %609 = getelementptr inbounds double, double* %558, i64 %508, !llfi_index !2847
  %610 = load double, double* %609, align 8, !tbaa !345, !llfi_index !2848
  %611 = fadd double %608, %610, !llfi_index !2849
  store double %611, double* %609, align 8, !tbaa !345, !llfi_index !2850
  %612 = load double, double* %117, align 16, !tbaa !345, !llfi_index !2851
  %613 = getelementptr inbounds double, double* %563, i64 %508, !llfi_index !2852
  %614 = load double, double* %613, align 8, !tbaa !345, !llfi_index !2853
  %615 = fadd double %612, %614, !llfi_index !2854
  store double %615, double* %613, align 8, !tbaa !345, !llfi_index !2855
  %616 = load double, double* %118, align 16, !tbaa !345, !llfi_index !2856
  %617 = getelementptr inbounds double, double* %568, i64 %508, !llfi_index !2857
  %618 = load double, double* %617, align 8, !tbaa !345, !llfi_index !2858
  %619 = fadd double %616, %618, !llfi_index !2859
  store double %619, double* %617, align 8, !tbaa !345, !llfi_index !2860
  %620 = load double, double* %119, align 8, !tbaa !345, !llfi_index !2861
  %621 = getelementptr inbounds double, double* %558, i64 %511, !llfi_index !2862
  %622 = load double, double* %621, align 8, !tbaa !345, !llfi_index !2863
  %623 = fadd double %620, %622, !llfi_index !2864
  store double %623, double* %621, align 8, !tbaa !345, !llfi_index !2865
  %624 = load double, double* %120, align 8, !tbaa !345, !llfi_index !2866
  %625 = getelementptr inbounds double, double* %563, i64 %511, !llfi_index !2867
  %626 = load double, double* %625, align 8, !tbaa !345, !llfi_index !2868
  %627 = fadd double %624, %626, !llfi_index !2869
  store double %627, double* %625, align 8, !tbaa !345, !llfi_index !2870
  %628 = load double, double* %121, align 8, !tbaa !345, !llfi_index !2871
  %629 = getelementptr inbounds double, double* %568, i64 %511, !llfi_index !2872
  %630 = load double, double* %629, align 8, !tbaa !345, !llfi_index !2873
  %631 = fadd double %628, %630, !llfi_index !2874
  store double %631, double* %629, align 8, !tbaa !345, !llfi_index !2875
  %632 = load double, double* %122, align 16, !tbaa !345, !llfi_index !2876
  %633 = getelementptr inbounds double, double* %558, i64 %514, !llfi_index !2877
  %634 = load double, double* %633, align 8, !tbaa !345, !llfi_index !2878
  %635 = fadd double %632, %634, !llfi_index !2879
  store double %635, double* %633, align 8, !tbaa !345, !llfi_index !2880
  %636 = load double, double* %123, align 16, !tbaa !345, !llfi_index !2881
  %637 = getelementptr inbounds double, double* %563, i64 %514, !llfi_index !2882
  %638 = load double, double* %637, align 8, !tbaa !345, !llfi_index !2883
  %639 = fadd double %636, %638, !llfi_index !2884
  store double %639, double* %637, align 8, !tbaa !345, !llfi_index !2885
  %640 = load double, double* %124, align 16, !tbaa !345, !llfi_index !2886
  %641 = getelementptr inbounds double, double* %568, i64 %514, !llfi_index !2887
  %642 = load double, double* %641, align 8, !tbaa !345, !llfi_index !2888
  %643 = fadd double %640, %642, !llfi_index !2889
  store double %643, double* %641, align 8, !tbaa !345, !llfi_index !2890
  %644 = load double, double* %125, align 8, !tbaa !345, !llfi_index !2891
  %645 = getelementptr inbounds double, double* %558, i64 %517, !llfi_index !2892
  %646 = load double, double* %645, align 8, !tbaa !345, !llfi_index !2893
  %647 = fadd double %644, %646, !llfi_index !2894
  store double %647, double* %645, align 8, !tbaa !345, !llfi_index !2895
  %648 = load double, double* %126, align 8, !tbaa !345, !llfi_index !2896
  %649 = getelementptr inbounds double, double* %563, i64 %517, !llfi_index !2897
  %650 = load double, double* %649, align 8, !tbaa !345, !llfi_index !2898
  %651 = fadd double %648, %650, !llfi_index !2899
  store double %651, double* %649, align 8, !tbaa !345, !llfi_index !2900
  %652 = load double, double* %127, align 8, !tbaa !345, !llfi_index !2901
  %653 = getelementptr inbounds double, double* %568, i64 %517, !llfi_index !2902
  %654 = load double, double* %653, align 8, !tbaa !345, !llfi_index !2903
  %655 = fadd double %652, %654, !llfi_index !2904
  store double %655, double* %653, align 8, !tbaa !345, !llfi_index !2905
  %656 = add nuw nsw i64 %132, 1, !llfi_index !2906
  %657 = icmp eq i64 %656, %130, !llfi_index !2907
  br i1 %657, label %.loopexit, label %131, !llvm.loop !2908, !llfi_index !2909
}

; Function Attrs: mustprogress nofree nosync nounwind readnone willreturn
declare dso_local double @cbrt(double) local_unnamed_addr #9

; Function Attrs: mustprogress noinline nounwind uwtable
define dso_local void @_Z28CalcHourglassControlForElemsPdd(double* nocapture %0, double %1) local_unnamed_addr #10 {
  %3 = alloca [8 x double], align 16, !llfi_index !2910
  %4 = bitcast [8 x double]* %3 to i8*, !llfi_index !2911
  %5 = alloca [8 x double], align 16, !llfi_index !2912
  %6 = bitcast [8 x double]* %5 to i8*, !llfi_index !2913
  %7 = alloca [8 x double], align 16, !llfi_index !2914
  %8 = bitcast [8 x double]* %7 to i8*, !llfi_index !2915
  %9 = alloca [8 x double], align 16, !llfi_index !2916
  %10 = bitcast [8 x double]* %9 to i8*, !llfi_index !2917
  %11 = alloca [8 x double], align 16, !llfi_index !2918
  %12 = bitcast [8 x double]* %11 to i8*, !llfi_index !2919
  %13 = alloca [8 x double], align 16, !llfi_index !2920
  %14 = bitcast [8 x double]* %13 to i8*, !llfi_index !2921
  call void @llvm.lifetime.start.p0i8(i64 64, i8* nonnull %4) #2, !llfi_index !2922
  call void @llvm.lifetime.start.p0i8(i64 64, i8* nonnull %6) #2, !llfi_index !2923
  call void @llvm.lifetime.start.p0i8(i64 64, i8* nonnull %8) #2, !llfi_index !2924
  call void @llvm.lifetime.start.p0i8(i64 64, i8* nonnull %10) #2, !llfi_index !2925
  call void @llvm.lifetime.start.p0i8(i64 64, i8* nonnull %12) #2, !llfi_index !2926
  call void @llvm.lifetime.start.p0i8(i64 64, i8* nonnull %14) #2, !llfi_index !2927
  %15 = load i32, i32* getelementptr inbounds (%struct.Mesh, %struct.Mesh* @mesh, i64 0, i32 79), align 8, !tbaa !404, !llfi_index !2928
  %16 = shl nsw i32 %15, 3, !llfi_index !2929
  %17 = sext i32 %16 to i64, !llfi_index !2930
  %18 = shl nsw i64 %17, 3, !llfi_index !2931
  %19 = tail call noalias align 16 i8* @malloc(i64 %18) #2, !llfi_index !2932
  %20 = bitcast i8* %19 to double*, !llfi_index !2933
  %21 = tail call noalias align 16 i8* @malloc(i64 %18) #2, !llfi_index !2934
  %22 = bitcast i8* %21 to double*, !llfi_index !2935
  %23 = tail call noalias align 16 i8* @malloc(i64 %18) #2, !llfi_index !2936
  %24 = bitcast i8* %23 to double*, !llfi_index !2937
  %25 = tail call noalias align 16 i8* @malloc(i64 %18) #2, !llfi_index !2938
  %26 = bitcast i8* %25 to double*, !llfi_index !2939
  %27 = tail call noalias align 16 i8* @malloc(i64 %18) #2, !llfi_index !2940
  %28 = bitcast i8* %27 to double*, !llfi_index !2941
  %29 = tail call noalias align 16 i8* @malloc(i64 %18) #2, !llfi_index !2942
  %30 = bitcast i8* %29 to double*, !llfi_index !2943
  %31 = getelementptr inbounds [8 x double], [8 x double]* %3, i64 0, i64 0, !llfi_index !2944
  %32 = getelementptr inbounds [8 x double], [8 x double]* %5, i64 0, i64 0, !llfi_index !2945
  %33 = getelementptr inbounds [8 x double], [8 x double]* %7, i64 0, i64 0, !llfi_index !2946
  %34 = getelementptr inbounds [8 x double], [8 x double]* %9, i64 0, i64 0, !llfi_index !2947
  %35 = getelementptr inbounds [8 x double], [8 x double]* %11, i64 0, i64 0, !llfi_index !2948
  %36 = getelementptr inbounds [8 x double], [8 x double]* %13, i64 0, i64 0, !llfi_index !2949
  %37 = icmp sgt i32 %15, 0, !llfi_index !2950
  br i1 %37, label %38, label %.loopexit, !llfi_index !2951

38:                                               ; preds = %2
  %39 = zext i32 %15 to i64, !llfi_index !2952
  br label %42, !llfi_index !2953

40:                                               ; preds = %42
  %41 = icmp eq i64 %64, %39, !llfi_index !2954
  br i1 %41, label %.loopexit, label %42, !llvm.loop !2955, !llfi_index !2956

42:                                               ; preds = %40, %38
  %43 = phi i64 [ 0, %38 ], [ %64, %40 ], !llfi_index !2957
  %44 = shl nuw nsw i64 %43, 6, !llfi_index !2958
  %45 = getelementptr i8, i8* %29, i64 %44, !llfi_index !2959
  %46 = getelementptr i8, i8* %27, i64 %44, !llfi_index !2960
  %47 = getelementptr i8, i8* %25, i64 %44, !llfi_index !2961
  %48 = getelementptr i8, i8* %23, i64 %44, !llfi_index !2962
  %49 = getelementptr i8, i8* %21, i64 %44, !llfi_index !2963
  %50 = getelementptr i8, i8* %19, i64 %44, !llfi_index !2964
  %51 = shl nsw i64 %43, 3, !llfi_index !2965
  %52 = load i32*, i32** getelementptr inbounds (%struct.Mesh, %struct.Mesh* @mesh, i64 0, i32 17, i32 0, i32 0, i32 0, i32 0), align 8, !tbaa !168, !llfi_index !2966
  %53 = getelementptr inbounds i32, i32* %52, i64 %51, !llfi_index !2967
  call void @_Z29CollectDomainNodesToElemNodesPKiPdS1_S1_(i32* %53, double* nonnull %31, double* nonnull %32, double* nonnull %33), !llfi_index !2968
  call void @_Z24CalcElemVolumeDerivativePdS_S_PKdS1_S1_(double* nonnull %34, double* nonnull %35, double* nonnull %36, double* nonnull %31, double* nonnull %32, double* nonnull %33), !llfi_index !2969
  call void @llvm.memcpy.p0i8.p0i8.i64(i8* noundef nonnull align 16 dereferenceable(64) %50, i8* noundef nonnull align 16 dereferenceable(64) %10, i64 64, i1 false), !llfi_index !2970
  call void @llvm.memcpy.p0i8.p0i8.i64(i8* noundef nonnull align 16 dereferenceable(64) %49, i8* noundef nonnull align 16 dereferenceable(64) %12, i64 64, i1 false), !llfi_index !2971
  call void @llvm.memcpy.p0i8.p0i8.i64(i8* noundef nonnull align 16 dereferenceable(64) %48, i8* noundef nonnull align 16 dereferenceable(64) %14, i64 64, i1 false), !llfi_index !2972
  call void @llvm.memcpy.p0i8.p0i8.i64(i8* noundef nonnull align 16 dereferenceable(64) %47, i8* noundef nonnull align 16 dereferenceable(64) %4, i64 64, i1 false), !llfi_index !2973
  call void @llvm.memcpy.p0i8.p0i8.i64(i8* noundef nonnull align 16 dereferenceable(64) %46, i8* noundef nonnull align 16 dereferenceable(64) %6, i64 64, i1 false), !llfi_index !2974
  call void @llvm.memcpy.p0i8.p0i8.i64(i8* noundef nonnull align 16 dereferenceable(64) %45, i8* noundef nonnull align 16 dereferenceable(64) %8, i64 64, i1 false), !llfi_index !2975
  %54 = load double*, double** getelementptr inbounds (%struct.Mesh, %struct.Mesh* @mesh, i64 0, i32 40, i32 0, i32 0, i32 0, i32 0), align 8, !tbaa !9, !llfi_index !2976
  %55 = getelementptr inbounds double, double* %54, i64 %43, !llfi_index !2977
  %56 = load double, double* %55, align 8, !tbaa !345, !llfi_index !2978
  %57 = load double*, double** getelementptr inbounds (%struct.Mesh, %struct.Mesh* @mesh, i64 0, i32 39, i32 0, i32 0, i32 0, i32 0), align 8, !tbaa !9, !llfi_index !2979
  %58 = getelementptr inbounds double, double* %57, i64 %43, !llfi_index !2980
  %59 = load double, double* %58, align 8, !tbaa !345, !llfi_index !2981
  %60 = fmul double %56, %59, !llfi_index !2982
  %61 = getelementptr inbounds double, double* %0, i64 %43, !llfi_index !2983
  store double %60, double* %61, align 8, !tbaa !345, !llfi_index !2984
  %62 = load double, double* %58, align 8, !tbaa !345, !llfi_index !2985
  %63 = fcmp ugt double %62, 0.000000e+00, !llfi_index !2986
  %64 = add nuw nsw i64 %43, 1, !llfi_index !2987
  br i1 %63, label %40, label %65, !llfi_index !2988

65:                                               ; preds = %42
  call void @postInjections()
  tail call void @exit(i32 -1) #32, !llfi_index !2989
  unreachable, !llfi_index !2990

.loopexit:                                        ; preds = %40, %2
  %66 = fcmp ogt double %1, 0.000000e+00, !llfi_index !2991
  br i1 %66, label %67, label %68, !llfi_index !2992

67:                                               ; preds = %.loopexit
  tail call void @_Z28CalcFBHourglassForceForElemsPdS_S_S_S_S_S_d(double* %0, double* %26, double* %28, double* %30, double* %20, double* %22, double* %24, double %1), !llfi_index !2993
  br label %68, !llfi_index !2994

68:                                               ; preds = %67, %.loopexit
  %69 = icmp eq i8* %29, null, !llfi_index !2995
  br i1 %69, label %71, label %70, !llfi_index !2996

70:                                               ; preds = %68
  tail call void @free(i8* nonnull %29) #2, !llfi_index !2997
  br label %71, !llfi_index !2998

71:                                               ; preds = %70, %68
  %72 = icmp eq i8* %27, null, !llfi_index !2999
  br i1 %72, label %74, label %73, !llfi_index !3000

73:                                               ; preds = %71
  tail call void @free(i8* nonnull %27) #2, !llfi_index !3001
  br label %74, !llfi_index !3002

74:                                               ; preds = %73, %71
  %75 = icmp eq i8* %25, null, !llfi_index !3003
  br i1 %75, label %77, label %76, !llfi_index !3004

76:                                               ; preds = %74
  tail call void @free(i8* nonnull %25) #2, !llfi_index !3005
  br label %77, !llfi_index !3006

77:                                               ; preds = %76, %74
  %78 = icmp eq i8* %23, null, !llfi_index !3007
  br i1 %78, label %80, label %79, !llfi_index !3008

79:                                               ; preds = %77
  tail call void @free(i8* nonnull %23) #2, !llfi_index !3009
  br label %80, !llfi_index !3010

80:                                               ; preds = %79, %77
  %81 = icmp eq i8* %21, null, !llfi_index !3011
  br i1 %81, label %83, label %82, !llfi_index !3012

82:                                               ; preds = %80
  tail call void @free(i8* nonnull %21) #2, !llfi_index !3013
  br label %83, !llfi_index !3014

83:                                               ; preds = %82, %80
  %84 = icmp eq i8* %19, null, !llfi_index !3015
  br i1 %84, label %86, label %85, !llfi_index !3016

85:                                               ; preds = %83
  tail call void @free(i8* nonnull %19) #2, !llfi_index !3017
  br label %86, !llfi_index !3018

86:                                               ; preds = %85, %83
  call void @llvm.lifetime.end.p0i8(i64 64, i8* nonnull %14) #2, !llfi_index !3019
  call void @llvm.lifetime.end.p0i8(i64 64, i8* nonnull %12) #2, !llfi_index !3020
  call void @llvm.lifetime.end.p0i8(i64 64, i8* nonnull %10) #2, !llfi_index !3021
  call void @llvm.lifetime.end.p0i8(i64 64, i8* nonnull %8) #2, !llfi_index !3022
  call void @llvm.lifetime.end.p0i8(i64 64, i8* nonnull %6) #2, !llfi_index !3023
  call void @llvm.lifetime.end.p0i8(i64 64, i8* nonnull %4) #2, !llfi_index !3024
  ret void, !llfi_index !3025
}

; Function Attrs: inaccessiblememonly mustprogress nofree nounwind willreturn
declare dso_local noalias noundef align 16 i8* @malloc(i64 noundef) local_unnamed_addr #11

; Function Attrs: argmemonly nofree nounwind willreturn
declare void @llvm.memcpy.p0i8.p0i8.i64(i8* noalias nocapture writeonly, i8* noalias nocapture readonly, i64, i1 immarg) #12

; Function Attrs: noreturn nounwind
declare dso_local void @exit(i32) local_unnamed_addr #13

; Function Attrs: inaccessiblemem_or_argmemonly mustprogress nounwind willreturn
declare dso_local void @free(i8* nocapture noundef) local_unnamed_addr #14

; Function Attrs: mustprogress noinline nounwind uwtable
define dso_local void @_Z23CalcVolumeForceForElemsv() local_unnamed_addr #10 {
  %1 = load i32, i32* getelementptr inbounds (%struct.Mesh, %struct.Mesh* @mesh, i64 0, i32 79), align 8, !tbaa !404, !llfi_index !3026
  %2 = icmp eq i32 %1, 0, !llfi_index !3027
  br i1 %2, label %40, label %3, !llfi_index !3028

3:                                                ; preds = %0
  %4 = load double, double* getelementptr inbounds (%struct.Mesh, %struct.Mesh* @mesh, i64 0, i32 54), align 8, !tbaa !345, !llfi_index !3029
  %5 = sext i32 %1 to i64, !llfi_index !3030
  %6 = shl nsw i64 %5, 3, !llfi_index !3031
  %7 = tail call noalias align 16 i8* @malloc(i64 %6) #2, !llfi_index !3032
  %8 = bitcast i8* %7 to double*, !llfi_index !3033
  %9 = tail call noalias align 16 i8* @malloc(i64 %6) #2, !llfi_index !3034
  %10 = bitcast i8* %9 to double*, !llfi_index !3035
  %11 = tail call noalias align 16 i8* @malloc(i64 %6) #2, !llfi_index !3036
  %12 = bitcast i8* %11 to double*, !llfi_index !3037
  %13 = tail call noalias align 16 i8* @malloc(i64 %6) #2, !llfi_index !3038
  %14 = bitcast i8* %13 to double*, !llfi_index !3039
  tail call void @_Z23InitStressTermsForElemsiPdS_S_(i32 %1, double* %8, double* %10, double* %12), !llfi_index !3040
  tail call void @_Z23IntegrateStressForElemsiPdS_S_S_(i32 %1, double* %8, double* %10, double* %12, double* %14), !llfi_index !3041
  %15 = icmp sgt i32 %1, 0, !llfi_index !3042
  br i1 %15, label %16, label %21, !llfi_index !3043

16:                                               ; preds = %3
  %17 = zext i32 %1 to i64, !llfi_index !3044
  br label %33, !llfi_index !3045

18:                                               ; preds = %33
  %19 = icmp eq i64 %38, %17, !llfi_index !3046
  br i1 %19, label %20, label %33, !llvm.loop !3047, !llfi_index !3048

20:                                               ; preds = %18
  tail call void @_Z28CalcHourglassControlForElemsPdd(double* nonnull %14, double %4), !llfi_index !3049
  br label %23, !llfi_index !3050

21:                                               ; preds = %3
  tail call void @_Z28CalcHourglassControlForElemsPdd(double* %14, double %4), !llfi_index !3051
  %22 = icmp eq i8* %13, null, !llfi_index !3052
  br i1 %22, label %24, label %23, !llfi_index !3053

23:                                               ; preds = %21, %20
  tail call void @free(i8* nonnull %13) #2, !llfi_index !3054
  br label %24, !llfi_index !3055

24:                                               ; preds = %23, %21
  %25 = icmp eq i8* %11, null, !llfi_index !3056
  br i1 %25, label %27, label %26, !llfi_index !3057

26:                                               ; preds = %24
  tail call void @free(i8* nonnull %11) #2, !llfi_index !3058
  br label %27, !llfi_index !3059

27:                                               ; preds = %26, %24
  %28 = icmp eq i8* %9, null, !llfi_index !3060
  br i1 %28, label %30, label %29, !llfi_index !3061

29:                                               ; preds = %27
  tail call void @free(i8* nonnull %9) #2, !llfi_index !3062
  br label %30, !llfi_index !3063

30:                                               ; preds = %29, %27
  %31 = icmp eq i8* %7, null, !llfi_index !3064
  br i1 %31, label %40, label %32, !llfi_index !3065

32:                                               ; preds = %30
  tail call void @free(i8* nonnull %7) #2, !llfi_index !3066
  br label %40, !llfi_index !3067

33:                                               ; preds = %18, %16
  %34 = phi i64 [ 0, %16 ], [ %38, %18 ], !llfi_index !3068
  %35 = getelementptr inbounds double, double* %14, i64 %34, !llfi_index !3069
  %36 = load double, double* %35, align 8, !tbaa !345, !llfi_index !3070
  %37 = fcmp ugt double %36, 0.000000e+00, !llfi_index !3071
  %38 = add nuw nsw i64 %34, 1, !llfi_index !3072
  br i1 %37, label %18, label %39, !llfi_index !3073

39:                                               ; preds = %33
  call void @postInjections()
  tail call void @exit(i32 -1) #32, !llfi_index !3074
  unreachable, !llfi_index !3075

40:                                               ; preds = %32, %30, %0
  ret void, !llfi_index !3076
}

; Function Attrs: mustprogress noinline nounwind uwtable
define dso_local void @_Z17CalcForceForNodesv() local_unnamed_addr #10 {
  %1 = load i32, i32* getelementptr inbounds (%struct.Mesh, %struct.Mesh* @mesh, i64 0, i32 80), align 4, !tbaa !404, !llfi_index !3077
  %2 = load double*, double** getelementptr inbounds (%struct.Mesh, %struct.Mesh* @mesh, i64 0, i32 9, i32 0, i32 0, i32 0, i32 0), align 8, !llfi_index !3078
  %3 = load double*, double** getelementptr inbounds (%struct.Mesh, %struct.Mesh* @mesh, i64 0, i32 10, i32 0, i32 0, i32 0, i32 0), align 8, !llfi_index !3079
  %4 = load double*, double** getelementptr inbounds (%struct.Mesh, %struct.Mesh* @mesh, i64 0, i32 11, i32 0, i32 0, i32 0, i32 0), align 8, !llfi_index !3080
  %5 = icmp sgt i32 %1, 0, !llfi_index !3081
  br i1 %5, label %6, label %.loopexit, !llfi_index !3082

6:                                                ; preds = %0
  %7 = zext i32 %1 to i64, !llfi_index !3083
  %8 = icmp eq i32 %1, 1, !llfi_index !3084
  br i1 %8, label %.preheader, label %9, !llfi_index !3085

.preheader:                                       ; preds = %36, %9, %6
  %.ph = phi i64 [ %25, %36 ], [ 0, %6 ], [ 0, %9 ], !llfi_index !3086
  br label %38, !llfi_index !3087

9:                                                ; preds = %6
  %10 = getelementptr double, double* %2, i64 %7, !llfi_index !3088
  %11 = getelementptr double, double* %3, i64 %7, !llfi_index !3089
  %12 = getelementptr double, double* %4, i64 %7, !llfi_index !3090
  %13 = icmp ult double* %2, %11, !llfi_index !3091
  %14 = icmp ult double* %3, %10, !llfi_index !3092
  %15 = and i1 %14, %13, !llfi_index !3093
  %16 = icmp ult double* %2, %12, !llfi_index !3094
  %17 = icmp ult double* %4, %10, !llfi_index !3095
  %18 = and i1 %17, %16, !llfi_index !3096
  %19 = or i1 %15, %18, !llfi_index !3097
  %20 = icmp ult double* %3, %12, !llfi_index !3098
  %21 = icmp ult double* %4, %11, !llfi_index !3099
  %22 = and i1 %21, %20, !llfi_index !3100
  %23 = or i1 %22, %19, !llfi_index !3101
  br i1 %23, label %.preheader, label %24, !llfi_index !3102

24:                                               ; preds = %9
  %25 = and i64 %7, 4294967294, !llfi_index !3103
  br label %26, !llfi_index !3104

26:                                               ; preds = %26, %24
  %27 = phi i64 [ 0, %24 ], [ %34, %26 ], !llfi_index !3105
  %28 = getelementptr inbounds double, double* %2, i64 %27, !llfi_index !3106
  %29 = bitcast double* %28 to <2 x double>*, !llfi_index !3107
  store <2 x double> zeroinitializer, <2 x double>* %29, align 8, !tbaa !345, !alias.scope !3108, !noalias !3111, !llfi_index !3114
  %30 = getelementptr inbounds double, double* %3, i64 %27, !llfi_index !3115
  %31 = bitcast double* %30 to <2 x double>*, !llfi_index !3116
  store <2 x double> zeroinitializer, <2 x double>* %31, align 8, !tbaa !345, !alias.scope !3117, !noalias !3118, !llfi_index !3119
  %32 = getelementptr inbounds double, double* %4, i64 %27, !llfi_index !3120
  %33 = bitcast double* %32 to <2 x double>*, !llfi_index !3121
  store <2 x double> zeroinitializer, <2 x double>* %33, align 8, !tbaa !345, !alias.scope !3118, !llfi_index !3122
  %34 = add nuw i64 %27, 2, !llfi_index !3123
  %35 = icmp eq i64 %34, %25, !llfi_index !3124
  br i1 %35, label %36, label %26, !llvm.loop !3125, !llfi_index !3126

36:                                               ; preds = %26
  %37 = icmp eq i64 %25, %7, !llfi_index !3127
  br i1 %37, label %.loopexit, label %.preheader, !llfi_index !3128

.loopexit:                                        ; preds = %38, %36, %0
  tail call void @_Z23CalcVolumeForceForElemsv(), !llfi_index !3129
  ret void, !llfi_index !3130

38:                                               ; preds = %38, %.preheader
  %39 = phi i64 [ %43, %38 ], [ %.ph, %.preheader ], !llfi_index !3131
  %40 = getelementptr inbounds double, double* %2, i64 %39, !llfi_index !3132
  store double 0.000000e+00, double* %40, align 8, !tbaa !345, !llfi_index !3133
  %41 = getelementptr inbounds double, double* %3, i64 %39, !llfi_index !3134
  store double 0.000000e+00, double* %41, align 8, !tbaa !345, !llfi_index !3135
  %42 = getelementptr inbounds double, double* %4, i64 %39, !llfi_index !3136
  store double 0.000000e+00, double* %42, align 8, !tbaa !345, !llfi_index !3137
  %43 = add nuw nsw i64 %39, 1, !llfi_index !3138
  %44 = icmp eq i64 %43, %7, !llfi_index !3139
  br i1 %44, label %.loopexit, label %38, !llvm.loop !3140, !llfi_index !3141
}

; Function Attrs: mustprogress nofree noinline norecurse nosync nounwind uwtable
define dso_local void @_Z24CalcAccelerationForNodesv() local_unnamed_addr #6 {
  %1 = load i32, i32* getelementptr inbounds (%struct.Mesh, %struct.Mesh* @mesh, i64 0, i32 80), align 4, !tbaa !404, !llfi_index !3142
  %2 = load double*, double** getelementptr inbounds (%struct.Mesh, %struct.Mesh* @mesh, i64 0, i32 9, i32 0, i32 0, i32 0, i32 0), align 8, !llfi_index !3143
  %3 = load double*, double** getelementptr inbounds (%struct.Mesh, %struct.Mesh* @mesh, i64 0, i32 12, i32 0, i32 0, i32 0, i32 0), align 8, !llfi_index !3144
  %4 = load double*, double** getelementptr inbounds (%struct.Mesh, %struct.Mesh* @mesh, i64 0, i32 6, i32 0, i32 0, i32 0, i32 0), align 8, !llfi_index !3145
  %5 = load double*, double** getelementptr inbounds (%struct.Mesh, %struct.Mesh* @mesh, i64 0, i32 10, i32 0, i32 0, i32 0, i32 0), align 8, !llfi_index !3146
  %6 = load double*, double** getelementptr inbounds (%struct.Mesh, %struct.Mesh* @mesh, i64 0, i32 7, i32 0, i32 0, i32 0, i32 0), align 8, !llfi_index !3147
  %7 = load double*, double** getelementptr inbounds (%struct.Mesh, %struct.Mesh* @mesh, i64 0, i32 11, i32 0, i32 0, i32 0, i32 0), align 8, !llfi_index !3148
  %8 = load double*, double** getelementptr inbounds (%struct.Mesh, %struct.Mesh* @mesh, i64 0, i32 8, i32 0, i32 0, i32 0, i32 0), align 8, !llfi_index !3149
  %9 = icmp sgt i32 %1, 0, !llfi_index !3150
  br i1 %9, label %10, label %.loopexit, !llfi_index !3151

10:                                               ; preds = %0
  %11 = zext i32 %1 to i64, !llfi_index !3152
  br label %12, !llfi_index !3153

.loopexit:                                        ; preds = %12, %0
  ret void, !llfi_index !3154

12:                                               ; preds = %12, %10
  %13 = phi i64 [ 0, %10 ], [ %30, %12 ], !llfi_index !3155
  %14 = getelementptr inbounds double, double* %2, i64 %13, !llfi_index !3156
  %15 = load double, double* %14, align 8, !tbaa !345, !llfi_index !3157
  %16 = getelementptr inbounds double, double* %3, i64 %13, !llfi_index !3158
  %17 = load double, double* %16, align 8, !tbaa !345, !llfi_index !3159
  %18 = fdiv double %15, %17, !llfi_index !3160
  %19 = getelementptr inbounds double, double* %4, i64 %13, !llfi_index !3161
  store double %18, double* %19, align 8, !tbaa !345, !llfi_index !3162
  %20 = getelementptr inbounds double, double* %5, i64 %13, !llfi_index !3163
  %21 = load double, double* %20, align 8, !tbaa !345, !llfi_index !3164
  %22 = load double, double* %16, align 8, !tbaa !345, !llfi_index !3165
  %23 = fdiv double %21, %22, !llfi_index !3166
  %24 = getelementptr inbounds double, double* %6, i64 %13, !llfi_index !3167
  store double %23, double* %24, align 8, !tbaa !345, !llfi_index !3168
  %25 = getelementptr inbounds double, double* %7, i64 %13, !llfi_index !3169
  %26 = load double, double* %25, align 8, !tbaa !345, !llfi_index !3170
  %27 = load double, double* %16, align 8, !tbaa !345, !llfi_index !3171
  %28 = fdiv double %26, %27, !llfi_index !3172
  %29 = getelementptr inbounds double, double* %8, i64 %13, !llfi_index !3173
  store double %28, double* %29, align 8, !tbaa !345, !llfi_index !3174
  %30 = add nuw nsw i64 %13, 1, !llfi_index !3175
  %31 = icmp eq i64 %30, %11, !llfi_index !3176
  br i1 %31, label %.loopexit, label %12, !llvm.loop !3177, !llfi_index !3178
}

; Function Attrs: mustprogress nofree noinline norecurse nosync nounwind uwtable
define dso_local void @_Z43ApplyAccelerationBoundaryConditionsForNodesv() local_unnamed_addr #6 {
  %1 = load i32, i32* getelementptr inbounds (%struct.Mesh, %struct.Mesh* @mesh, i64 0, i32 76), align 4, !tbaa !404, !llfi_index !3179
  %2 = add i32 %1, 1, !llfi_index !3180
  %3 = mul i32 %2, %2, !llfi_index !3181
  %4 = load i32*, i32** getelementptr inbounds (%struct.Mesh, %struct.Mesh* @mesh, i64 0, i32 13, i32 0, i32 0, i32 0, i32 0), align 8, !llfi_index !3182
  %5 = load double*, double** getelementptr inbounds (%struct.Mesh, %struct.Mesh* @mesh, i64 0, i32 6, i32 0, i32 0, i32 0, i32 0), align 8, !llfi_index !3183
  %6 = icmp eq i32 %3, 0, !llfi_index !3184
  br i1 %6, label %.loopexit, label %7, !llfi_index !3185

7:                                                ; preds = %0
  %8 = zext i32 %3 to i64, !llfi_index !3186
  br label %12, !llfi_index !3187

